# mark_description "Intel(R) C++ Intel(R) 64 Compiler for applications running on Intel(R) 64, Version 17.0.0.098 Build 20160721";
# mark_description "";
# mark_description "-std=c++11 -xCORE-AVX2 -finline-limit=100000 -qopt-streaming-stores=never -S";
	.file "QuadraticSolver.cpp"
	.text
..TXTST0:
# -- Begin  main
	.text
# mark_begin;
       .align    16,0x90
	.globl main
# --- main()
main:
..B1.1:                         # Preds ..B1.0
                                # Execution count [1.00e+00]
	.cfi_startproc
	.cfi_personality 0x3,__gxx_personality_v0
	.cfi_lsda 0xb, main$$LSDA
..___tag_value_main.9:
..L10:
                                                         #188.1
        pushq     %rbp                                          #188.1
	.cfi_def_cfa_offset 16
        movq      %rsp, %rbp                                    #188.1
	.cfi_def_cfa 6, 16
	.cfi_offset 6, -16
        andq      $-128, %rsp                                   #188.1
        pushq     %r12                                          #188.1
        pushq     %r13                                          #188.1
        pushq     %r14                                          #188.1
        pushq     %r15                                          #188.1
        pushq     %rbx                                          #188.1
        subq      $344, %rsp                                    #188.1
        movl      $10330110, %esi                               #188.1
        movl      $3, %edi                                      #188.1
        call      __intel_new_feature_proc_init                 #188.1
	.cfi_escape 0x10, 0x03, 0x0e, 0x38, 0x1c, 0x0d, 0x80, 0xff, 0xff, 0xff, 0x1a, 0x0d, 0xd8, 0xff, 0xff, 0xff, 0x22
	.cfi_escape 0x10, 0x0c, 0x0e, 0x38, 0x1c, 0x0d, 0x80, 0xff, 0xff, 0xff, 0x1a, 0x0d, 0xf8, 0xff, 0xff, 0xff, 0x22
	.cfi_escape 0x10, 0x0d, 0x0e, 0x38, 0x1c, 0x0d, 0x80, 0xff, 0xff, 0xff, 0x1a, 0x0d, 0xf0, 0xff, 0xff, 0xff, 0x22
	.cfi_escape 0x10, 0x0e, 0x0e, 0x38, 0x1c, 0x0d, 0x80, 0xff, 0xff, 0xff, 0x1a, 0x0d, 0xe8, 0xff, 0xff, 0xff, 0x22
	.cfi_escape 0x10, 0x0f, 0x0e, 0x38, 0x1c, 0x0d, 0x80, 0xff, 0xff, 0xff, 0x1a, 0x0d, 0xe0, 0xff, 0xff, 0xff, 0x22
                                # LOE
..B1.232:                       # Preds ..B1.1
                                # Execution count [1.00e+00]
        vstmxcsr  (%rsp)                                        #188.1
        movl      $_ZSt4cout, %edi                              #191.15
        movl      $.L_2__STRING.9, %esi                         #191.15
        orl       $32832, (%rsp)                                #188.1
        vldmxcsr  (%rsp)                                        #188.1
..___tag_value_main.19:
#       std::operator<<<std::char_traits<char>>(std::basic_ostream<char, std::char_traits<char>> &, const char *)
        call      _ZStlsISt11char_traitsIcEERSt13basic_ostreamIcT_ES5_PKc #191.15
..___tag_value_main.20:
                                # LOE rax
..B1.2:                         # Preds ..B1.232
                                # Execution count [1.00e+00]
        movq      %rax, %rdi                                    #191.85
        movl      $8388608, %esi                                #191.85
..___tag_value_main.21:
#       std::basic_ostream<char, std::char_traits<char>>::operator<<(std::basic_ostream<char, std::char_traits<char>> *, int)
        call      _ZNSolsEi                                     #191.85
..___tag_value_main.22:
                                # LOE rax
..B1.3:                         # Preds ..B1.2
                                # Execution count [1.00e+00]
        movq      %rax, %rdi                                    #191.99
        movl      $.L_2__STRING.10, %esi                        #191.99
..___tag_value_main.23:
#       std::operator<<<std::char_traits<char>>(std::basic_ostream<char, std::char_traits<char>> &, const char *)
        call      _ZStlsISt11char_traitsIcEERSt13basic_ostreamIcT_ES5_PKc #191.99
..___tag_value_main.24:
                                # LOE rax
..B1.4:                         # Preds ..B1.3
                                # Execution count [1.00e+00]
        movq      %rax, %rdi                                    #199.50
        movl      $20, %esi                                     #199.50
..___tag_value_main.25:
#       std::basic_ostream<char, std::char_traits<char>>::operator<<(std::basic_ostream<char, std::char_traits<char>> *, int)
        call      _ZNSolsEi                                     #199.50
..___tag_value_main.26:
                                # LOE rax
..B1.5:                         # Preds ..B1.4
                                # Execution count [1.00e+00]
        movq      %rax, %rdi                                    #199.64
        movl      $.L_2__STRING.11, %esi                        #199.64
..___tag_value_main.27:
#       std::operator<<<std::char_traits<char>>(std::basic_ostream<char, std::char_traits<char>> &, const char *)
        call      _ZStlsISt11char_traitsIcEERSt13basic_ostreamIcT_ES5_PKc #199.64
..___tag_value_main.28:
                                # LOE
..B1.6:                         # Preds ..B1.5
                                # Execution count [1.00e+00]
        lea       40(%rsp), %r13                                #202.22
        movq      %r13, %rdi                                    #202.22
..___tag_value_main.29:
#       std::__cxx11::list<unsigned long long, std::allocator<unsigned long long>>::list(std::__cxx11::list<unsigned long long, std::allocator<unsigned long long>> *)
        call      _ZNSt7__cxx114listIySaIyEEC1Ev                #202.22
..___tag_value_main.30:
                                # LOE r13
..B1.7:                         # Preds ..B1.6
                                # Execution count [1.00e+00]
        xorl      %edx, %edx                                    #204.49
        lea       8(%rsp), %rdi                                 #204.49
        movl      $0, 64(%rdi)                                  #202.22
        lea       88(%rsp), %rsi                                #204.49
        vxorps    %xmm0, %xmm0, %xmm0                           #202.22
        lea       24(%rsp), %r12                                #204.49
        vmovss    %xmm0, 8(%rsi)                                #202.22[spill]
        vmovss    %xmm0, -24(%rsi)                              #202.22
        vmovss    %xmm0, -20(%rsi)                              #202.22
        movq      %r12, -80(%rsi)                               #204.11
        movq      $21, (%rsi)                                   #204.49
..___tag_value_main.31:
#       std::__cxx11::basic_string<char, std::char_traits<char>, std::allocator<char>>::_M_create(std::__cxx11::basic_string<char, std::char_traits<char>, std::allocator<char>> *, std::__cxx11::basic_string<char, std::char_traits<char>, std::allocator<char>>::size_type &, std::__cxx11::basic_string<char, std::char_traits<char>, std::allocator<char>>::size_type)
        call      _ZNSt7__cxx1112basic_stringIcSt11char_traitsIcESaIcEE9_M_createERmm #204.49
..___tag_value_main.32:
                                # LOE rax r12 r13
..B1.8:                         # Preds ..B1.7
                                # Execution count [1.00e+00]
        movq      %rax, %r8                                     #204.49
                                # LOE r8 r12 r13
..B1.9:                         # Preds ..B1.8
                                # Execution count [2.19e-01]
        movq      88(%rsp), %rax                                #204.49
        movq      %r8, 8(%rsp)                                  #204.11
        movq      %rax, 24(%rsp)                                #204.11
        vmovups   .L_2__STRING.12(%rip), %xmm0                  #204.49
        vmovups   %xmm0, (%r8)                                  #204.49
        movl      16+.L_2__STRING.12(%rip), %ecx                #204.49
        movl      %ecx, 16(%r8)                                 #204.49
        movb      20+.L_2__STRING.12(%rip), %bl                 #204.49
        movb      %bl, 20(%r8)                                  #204.49
                                # LOE r12 r13
..B1.10:                        # Preds ..B1.9
                                # Execution count [1.10e-01]
        movq      8(%rsp), %rax                                 #204.11
        lea       104(%rsp), %rbx                               #204.11
        movq      -16(%rbx), %rcx                               #204.49
        movq      %rbx, %rdi                                    #204.11
        movq      %rcx, -88(%rbx)                               #204.11
        movb      $0, (%rax,%rcx)                               #204.49
..___tag_value_main.33:
#       std::__cxx11::list<unsigned long long, std::allocator<unsigned long long>>::list(std::__cxx11::list<unsigned long long, std::allocator<unsigned long long>> *)
        call      _ZNSt7__cxx114listIySaIyEEC1Ev                #204.11
..___tag_value_main.34:
                                # LOE rbx r12 r13
..B1.11:                        # Preds ..B1.10
                                # Execution count [9.70e-01]
        vmovss    96(%rsp), %xmm0                               #204.11[spill]
        xorl      %r14d, %r14d                                  #204.11
        vmovss    %xmm0, 128(%rsp)                              #204.11
        vmovss    %xmm0, 132(%rsp)                              #204.11
        movl      $0, 136(%rsp)                                 #204.11
                                # LOE rbx r12 r13 r14d
..B1.12:                        # Preds ..B1.223 ..B1.11
                                # Execution count [5.39e+00]
..___tag_value_main.35:
#       run_scalar_naive<float, int32_t>()
        call      _Z16run_scalar_naiveIfiEyv                    #204.11
..___tag_value_main.36:
                                # LOE rax rbx r12 r13 r14d
..B1.13:                        # Preds ..B1.12
                                # Execution count [5.39e+00]
        movq      %rax, %r15                                    #204.11
                                # LOE rbx r12 r13 r15 r14d
..B1.14:                        # Preds ..B1.13
                                # Execution count [5.39e+00]
        movl      $24, %edi                                     #204.11
..___tag_value_main.37:
#       operator new(std::size_t)
        call      _Znwm                                         #204.11
..___tag_value_main.38:
                                # LOE rax rbx r12 r13 r15 r14d
..B1.16:                        # Preds ..B1.14
                                # Execution count [5.39e+00]
        testq     %rax, %rax                                    #204.11
        je        ..B1.19       # Prob 32%                      #204.11
                                # LOE rax rbx r12 r13 r15 r14d
..B1.17:                        # Preds ..B1.16
                                # Execution count [3.63e+00]
        vpxor     %xmm0, %xmm0, %xmm0                           #204.11
        vmovups   %xmm0, (%rax)                                 #204.11
                                # LOE rax rbx r12 r13 r15 r14d
..B1.18:                        # Preds ..B1.17
                                # Execution count [3.63e+00]
        movq      %r15, 16(%rax)                                #204.11
                                # LOE rax rbx r12 r13 r15 r14d
..B1.19:                        # Preds ..B1.16 ..B1.18
                                # Execution count [5.39e+00]
        movq      %rax, %rdi                                    #204.11
        movq      %rbx, %rsi                                    #204.11
#       std::__detail::_List_node_base::_M_hook(std::__detail::_List_node_base *, std::__detail::_List_node_base *)
        call      _ZNSt8__detail15_List_node_base7_M_hookEPS0_  #204.11
                                # LOE rbx r12 r13 r15 r14d
..B1.20:                        # Preds ..B1.19
                                # Execution count [5.39e+00]
        vxorps    %xmm4, %xmm4, %xmm4                           #204.11
        incq      120(%rsp)                                     #204.11
        vmovss    128(%rsp), %xmm2                              #204.11
        vcvtsi2ssq %r15, %xmm4, %xmm4                           #204.11
        testq     %r15, %r15                                    #204.11
        jge       ..B1.223      # Prob 70%                      #204.11
                                # LOE rbx r12 r13 r15 r14d xmm2 xmm4
..B1.224:                       # Preds ..B1.20
                                # Execution count [1.62e+00]
        movq      %r15, %rax                                    #204.11
        vxorps    %xmm0, %xmm0, %xmm0                           #204.11
        shrq      $1, %r15                                      #204.11
        andq      $1, %rax                                      #204.11
        orq       %r15, %rax                                    #204.11
        vcvtsi2ssq %rax, %xmm0, %xmm0                           #204.11
        vaddss    %xmm0, %xmm0, %xmm4                           #204.11
                                # LOE rbx r12 r13 r14d xmm2 xmm4
..B1.223:                       # Preds ..B1.224 ..B1.20
                                # Execution count [5.39e+00]
        vxorps    %xmm0, %xmm0, %xmm0                           #204.11
        incl      %r14d                                         #204.11
        movl      136(%rsp), %eax                               #204.11
        vsubss    %xmm2, %xmm4, %xmm5                           #204.11
        vcvtsi2ss %eax, %xmm0, %xmm0                            #204.11
        incl      %eax                                          #204.11
        vaddss    .L_2il0floatpacket.29(%rip), %xmm0, %xmm1     #204.11
        vdivss    %xmm1, %xmm5, %xmm3                           #204.11
        movl      %eax, 136(%rsp)                               #204.11
        vaddss    %xmm3, %xmm2, %xmm2                           #204.11
        vmovss    %xmm2, 128(%rsp)                              #204.11
        vsubss    %xmm2, %xmm4, %xmm4                           #204.11
        vfmadd213ss 132(%rsp), %xmm4, %xmm5                     #204.11
        vmovss    %xmm5, 132(%rsp)                              #204.11
        cmpl      $20, %r14d                                    #204.11
        jl        ..B1.12       # Prob 82%                      #204.11
                                # LOE rbx r12 r13 r14d
..B1.21:                        # Preds ..B1.223
                                # Execution count [1.00e+00]: Infreq
        movl      $_ZSt4cout, %edi                              #204.11
        movq      8(%rsp), %rsi                                 #204.11
..___tag_value_main.39:
#       std::operator<<<std::char_traits<char>>(std::basic_ostream<char, std::char_traits<char>> &, const char *)
        call      _ZStlsISt11char_traitsIcEERSt13basic_ostreamIcT_ES5_PKc #204.11
..___tag_value_main.40:
                                # LOE rax rbx r12 r13
..B1.22:                        # Preds ..B1.21
                                # Execution count [1.00e+00]: Infreq
        movq      %rax, %rdi                                    #204.11
                                # LOE rbx rdi r12 r13
..B1.23:                        # Preds ..B1.22
                                # Execution count [1.00e+00]: Infreq
        vmovss    128(%rsp), %xmm2                              #204.11
        movq      $0x8000000000000000, %rcx                     #204.11
        vmovss    .L_2il0floatpacket.28(%rip), %xmm1            #204.11
        vcomiss   %xmm1, %xmm2                                  #204.11
        vsubss    %xmm1, %xmm2, %xmm3                           #204.11
        vcmpgess  %xmm1, %xmm2, %xmm0                           #204.11
        jae       ..L41         # Prob 50%                      #204.11
        vmovaps   %xmm2, %xmm3                                  #204.11
..L41:                                                          #
        vcvttss2si %xmm3, %rsi                                  #204.11
        vmovd     %xmm0, %eax                                   #204.11
        movslq    %eax, %rax                                    #204.11
        andq      %rcx, %rax                                    #204.11
        addq      %rax, %rsi                                    #204.11
..___tag_value_main.42:
#       std::basic_ostream<char, std::char_traits<char>>::operator<<(std::basic_ostream<char, std::char_traits<char>> *, unsigned long long)
        call      _ZNSolsEy                                     #204.11
..___tag_value_main.43:
                                # LOE rax rbx r12 r13
..B1.25:                        # Preds ..B1.23
                                # Execution count [1.00e+00]: Infreq
        movq      %rax, %rdi                                    #204.11
        movl      $.L_2__STRING.0, %esi                         #204.11
..___tag_value_main.44:
#       std::operator<<<std::char_traits<char>>(std::basic_ostream<char, std::char_traits<char>> &, const char *)
        call      _ZStlsISt11char_traitsIcEERSt13basic_ostreamIcT_ES5_PKc #204.11
..___tag_value_main.45:
                                # LOE rax rbx r12 r13
..B1.26:                        # Preds ..B1.25
                                # Execution count [1.00e+00]: Infreq
        movq      %rax, %rdi                                    #204.11
                                # LOE rbx rdi r12 r13
..B1.27:                        # Preds ..B1.26
                                # Execution count [1.00e+00]: Infreq
        movl      136(%rsp), %eax                               #204.11
        testl     %eax, %eax                                    #204.11
        jle       ..B1.29       # Prob 16%                      #204.11
                                # LOE rbx rdi r12 r13 eax
..B1.28:                        # Preds ..B1.27
                                # Execution count [8.40e-01]: Infreq
        vmovss    132(%rsp), %xmm0                              #204.11
        vxorps    %xmm1, %xmm1, %xmm1                           #204.11
        vsqrtss   %xmm0, %xmm0, %xmm0                           #204.11
        vcvtsi2ss %eax, %xmm1, %xmm1                            #204.11
        vdivss    %xmm1, %xmm0, %xmm3                           #204.11
        jmp       ..B1.30       # Prob 100%                     #204.11
                                # LOE rbx rdi r12 r13 xmm3
..B1.29:                        # Preds ..B1.27
                                # Execution count [1.60e-01]: Infreq
        vmovss    96(%rsp), %xmm3                               #204.11[spill]
                                # LOE rbx rdi r12 r13 xmm3
..B1.30:                        # Preds ..B1.28 ..B1.29
                                # Execution count [1.00e+00]: Infreq
        vmovss    .L_2il0floatpacket.28(%rip), %xmm1            #204.11
        movq      $0x8000000000000000, %rcx                     #204.11
        vcomiss   %xmm1, %xmm3                                  #204.11
        vsubss    %xmm1, %xmm3, %xmm2                           #204.11
        vcmpgess  %xmm1, %xmm3, %xmm0                           #204.11
        jae       ..L46         # Prob 50%                      #204.11
        vmovaps   %xmm3, %xmm2                                  #204.11
..L46:                                                          #
        vcvttss2si %xmm2, %rsi                                  #204.11
        vmovd     %xmm0, %eax                                   #204.11
        movslq    %eax, %rax                                    #204.11
        andq      %rcx, %rax                                    #204.11
        addq      %rax, %rsi                                    #204.11
..___tag_value_main.47:
#       std::basic_ostream<char, std::char_traits<char>>::operator<<(std::basic_ostream<char, std::char_traits<char>> *, unsigned long long)
        call      _ZNSolsEy                                     #204.11
..___tag_value_main.48:
                                # LOE rax rbx r12 r13
..B1.32:                        # Preds ..B1.30
                                # Execution count [1.00e+00]: Infreq
        movq      %rax, %rdi                                    #204.11
        movl      $.L_2__STRING.8, %esi                         #204.11
..___tag_value_main.49:
#       std::operator<<<std::char_traits<char>>(std::basic_ostream<char, std::char_traits<char>> &, const char *)
        call      _ZStlsISt11char_traitsIcEERSt13basic_ostreamIcT_ES5_PKc #204.11
..___tag_value_main.50:
                                # LOE rbx r12 r13
..B1.34:                        # Preds ..B1.32
                                # Execution count [1.00e+00]: Infreq
        movq      104(%rsp), %rax                               #204.11
        movq      %rax, %r14                                    #204.9
        cmpq      %rbx, %r13                                    #204.9
        je        ..B1.50       # Prob 32%                      #204.9
                                # LOE rax rbx r12 r13 r14
..B1.35:                        # Preds ..B1.34
                                # Execution count [6.74e-01]: Infreq
        movq      40(%rsp), %r15                                #204.5
        movq      %rbx, 80(%rsp)                                #204.9
        cmpq      %r13, %r15                                    #204.9
        je        ..B1.39       # Prob 10%                      #204.9
                                # LOE rax rbx r12 r13 r14 r15
..B1.37:                        # Preds ..B1.35 ..B1.38
                                # Execution count [1.76e+00]: Infreq
        cmpq      %rbx, %rax                                    #204.9
        je        ..B1.39       # Prob 20%                      #204.9
                                # LOE rax rbx r12 r13 r14 r15
..B1.38:                        # Preds ..B1.37
                                # Execution count [1.41e+00]: Infreq
        movq      16(%rax), %rcx                                #204.9
        movq      %rcx, 16(%r15)                                #204.9
        movq      (%r15), %r15                                  #204.9
        movq      (%rax), %rax                                  #204.9
        cmpq      %r13, %r15                                    #204.9
        jne       ..B1.37       # Prob 82%                      #204.9
                                # LOE rax rbx r12 r13 r14 r15
..B1.39:                        # Preds ..B1.35 ..B1.37 ..B1.38
                                # Execution count [2.54e-01]: Infreq
        movq      %rax, (%rsp)                                  #204.9
                                # LOE rax rbx r12 r13 r14 r15
..B1.40:                        # Preds ..B1.39
                                # Execution count [6.74e-01]: Infreq
        cmpq      %rbx, %rax                                    #204.9
        jne       ..B1.47       # Prob 50%                      #204.9
                                # LOE rbx r12 r13 r14 r15
..B1.41:                        # Preds ..B1.40
                                # Execution count [3.37e-01]: Infreq
        cmpq      %r13, %r15                                    #204.9
        je        ..B1.50       # Prob 10%                      #204.9
                                # LOE rbx r12 r13 r14 r15
..B1.43:                        # Preds ..B1.41 ..B1.45
                                # Execution count [1.69e+00]: Infreq
        movq      %r15, %rdi                                    #204.9
        movq      (%r15), %r14                                  #204.9
        decq      56(%rsp)                                      #204.5
#       std::__detail::_List_node_base::_M_unhook(std::__detail::_List_node_base *)
        call      _ZNSt8__detail15_List_node_base9_M_unhookEv   #204.9
                                # LOE rbx r12 r13 r14 r15
..B1.44:                        # Preds ..B1.43
                                # Execution count [1.69e+00]: Infreq
        movq      %r15, %rdi                                    #204.9
#       operator delete(void *)
        call      _ZdlPv                                        #204.9
                                # LOE rbx r12 r13 r14
..B1.45:                        # Preds ..B1.44
                                # Execution count [1.69e+00]: Infreq
        movq      %r14, %r15                                    #204.9
        cmpq      %r13, %r14                                    #204.9
        jne       ..B1.43       # Prob 82%                      #204.9
        jmp       ..B1.49       # Prob 100%                     #204.9
                                # LOE rbx r12 r13 r15
..B1.47:                        # Preds ..B1.40
                                # Execution count [3.37e-01]: Infreq
        movq      %r13, %rdi                                    #204.9
        movq      %r13, %rsi                                    #204.9
        movq      (%rsp), %rdx                                  #204.9
        movq      80(%rsp), %rcx                                #204.9
..___tag_value_main.51:
#       std::__cxx11::list<unsigned long long, std::allocator<unsigned long long>>::insert<std::__cxx11::list<unsigned long long, std::allocator<unsigned long long>>::const_iterator, void>(std::__cxx11::list<unsigned long long, std::allocator<unsigned long long>> *, std::__cxx11::list<unsigned long long, std::allocator<unsigned long long>>::const_iterator, std::__cxx11::list<unsigned long long, std::allocator<unsigned long long>>::const_iterator, std::__cxx11::list<unsigned long long, std::allocator<unsigned long long>>::const_iterator)
        call      _ZNSt7__cxx114listIySaIyEE6insertISt20_List_const_iteratorIyEvEESt14_List_iteratorIyES5_T_S8_ #204.9
..___tag_value_main.52:
                                # LOE rax rbx r12 r13
..B1.49:                        # Preds ..B1.45 ..B1.47
                                # Execution count [3.37e-01]: Infreq
        movq      104(%rsp), %r14                               #204.9
                                # LOE rbx r12 r13 r14
..B1.50:                        # Preds ..B1.41 ..B1.49 ..B1.34
                                # Execution count [1.00e+00]: Infreq
        movl      128(%rsp), %eax                               #204.11
        movl      132(%rsp), %ecx                               #204.11
        movl      136(%rsp), %r8d                               #204.11
        movl      %eax, 64(%rsp)                                #204.5
        movl      %ecx, 68(%rsp)                                #204.5
        movl      %r8d, 72(%rsp)                                #204.5
        cmpq      %rbx, %r14                                    #204.9
        je        ..B1.55       # Prob 10%                      #204.9
                                # LOE rbx r12 r13 r14
..B1.52:                        # Preds ..B1.50 ..B1.53
                                # Execution count [5.00e+00]: Infreq
        movq      %r14, %rdi                                    #204.9
        movq      (%r14), %r14                                  #204.9
#       operator delete(void *)
        call      _ZdlPv                                        #204.9
                                # LOE rbx r12 r13 r14
..B1.53:                        # Preds ..B1.52
                                # Execution count [5.00e+00]: Infreq
        cmpq      %rbx, %r14                                    #204.9
        jne       ..B1.52       # Prob 82%                      #204.9
                                # LOE rbx r12 r13 r14
..B1.55:                        # Preds ..B1.53 ..B1.50
                                # Execution count [1.00e+00]: Infreq
        movq      8(%rsp), %rdi                                 #204.9
        movq      %rbx, 104(%rsp)                               #204.9
        movq      %rbx, 112(%rsp)                               #204.9
        movq      $0, 120(%rsp)                                 #204.9
        cmpq      %r12, %rdi                                    #204.9
        je        ..B1.57       # Prob 78%                      #204.9
                                # LOE rdi r12 r13
..B1.56:                        # Preds ..B1.55
                                # Execution count [2.20e-01]: Infreq
#       operator delete(void *)
        call      _ZdlPv                                        #204.9
                                # LOE r12 r13
..B1.57:                        # Preds ..B1.56 ..B1.55
                                # Execution count [1.00e+00]: Infreq
        lea       144(%rsp), %r15                               #208.5
        movq      %r15, %rdi                                    #208.5
..___tag_value_main.53:
#       std::__cxx11::list<unsigned long long, std::allocator<unsigned long long>>::list(std::__cxx11::list<unsigned long long, std::allocator<unsigned long long>> *)
        call      _ZNSt7__cxx114listIySaIyEEC1Ev                #208.5
..___tag_value_main.54:
                                # LOE r12 r13 r15
..B1.58:                        # Preds ..B1.57
                                # Execution count [9.70e-01]: Infreq
        vmovss    96(%rsp), %xmm0                               #208.5[spill]
        xorl      %ebx, %ebx                                    #208.5
        vmovss    %xmm0, 168(%rsp)                              #208.5
        vmovss    %xmm0, 172(%rsp)                              #208.5
        movl      $0, 176(%rsp)                                 #208.5
                                # LOE r12 r13 r15 ebx
..B1.59:                        # Preds ..B1.225 ..B1.58
                                # Execution count [5.39e+00]: Infreq
..___tag_value_main.55:
#       run_AVX2()
        call      _Z8run_AVX2v                                  #208.5
..___tag_value_main.56:
                                # LOE rax r12 r13 r15 ebx
..B1.60:                        # Preds ..B1.59
                                # Execution count [5.39e+00]: Infreq
        movq      %rax, %r14                                    #208.5
                                # LOE r12 r13 r14 r15 ebx
..B1.61:                        # Preds ..B1.60
                                # Execution count [5.39e+00]: Infreq
        movl      $24, %edi                                     #208.5
..___tag_value_main.57:
#       operator new(std::size_t)
        call      _Znwm                                         #208.5
..___tag_value_main.58:
                                # LOE rax r12 r13 r14 r15 ebx
..B1.63:                        # Preds ..B1.61
                                # Execution count [5.39e+00]: Infreq
        testq     %rax, %rax                                    #208.5
        je        ..B1.66       # Prob 32%                      #208.5
                                # LOE rax r12 r13 r14 r15 ebx
..B1.64:                        # Preds ..B1.63
                                # Execution count [3.63e+00]: Infreq
        vpxor     %xmm0, %xmm0, %xmm0                           #208.5
        vmovups   %xmm0, (%rax)                                 #208.5
                                # LOE rax r12 r13 r14 r15 ebx
..B1.65:                        # Preds ..B1.64
                                # Execution count [3.63e+00]: Infreq
        movq      %r14, 16(%rax)                                #208.5
                                # LOE rax r12 r13 r14 r15 ebx
..B1.66:                        # Preds ..B1.63 ..B1.65
                                # Execution count [5.39e+00]: Infreq
        movq      %rax, %rdi                                    #208.5
        movq      %r15, %rsi                                    #208.5
#       std::__detail::_List_node_base::_M_hook(std::__detail::_List_node_base *, std::__detail::_List_node_base *)
        call      _ZNSt8__detail15_List_node_base7_M_hookEPS0_  #208.5
                                # LOE r12 r13 r14 r15 ebx
..B1.67:                        # Preds ..B1.66
                                # Execution count [5.39e+00]: Infreq
        vxorps    %xmm4, %xmm4, %xmm4                           #208.5
        incq      160(%rsp)                                     #208.5
        vmovss    168(%rsp), %xmm2                              #208.5
        vcvtsi2ssq %r14, %xmm4, %xmm4                           #208.5
        testq     %r14, %r14                                    #208.5
        jge       ..B1.225      # Prob 70%                      #208.5
                                # LOE r12 r13 r14 r15 ebx xmm2 xmm4
..B1.226:                       # Preds ..B1.67
                                # Execution count [1.62e+00]: Infreq
        movq      %r14, %rax                                    #208.5
        vxorps    %xmm0, %xmm0, %xmm0                           #208.5
        shrq      $1, %r14                                      #208.5
        andq      $1, %rax                                      #208.5
        orq       %r14, %rax                                    #208.5
        vcvtsi2ssq %rax, %xmm0, %xmm0                           #208.5
        vaddss    %xmm0, %xmm0, %xmm4                           #208.5
                                # LOE r12 r13 r15 ebx xmm2 xmm4
..B1.225:                       # Preds ..B1.226 ..B1.67
                                # Execution count [5.39e+00]: Infreq
        vxorps    %xmm0, %xmm0, %xmm0                           #208.5
        incl      %ebx                                          #208.5
        movl      176(%rsp), %eax                               #208.5
        vsubss    %xmm2, %xmm4, %xmm5                           #208.5
        vcvtsi2ss %eax, %xmm0, %xmm0                            #208.5
        incl      %eax                                          #208.5
        vaddss    .L_2il0floatpacket.29(%rip), %xmm0, %xmm1     #208.5
        vdivss    %xmm1, %xmm5, %xmm3                           #208.5
        movl      %eax, 176(%rsp)                               #208.5
        vaddss    %xmm3, %xmm2, %xmm2                           #208.5
        vmovss    %xmm2, 168(%rsp)                              #208.5
        vsubss    %xmm2, %xmm4, %xmm4                           #208.5
        vfmadd213ss 172(%rsp), %xmm4, %xmm5                     #208.5
        vmovss    %xmm5, 172(%rsp)                              #208.5
        cmpl      $20, %ebx                                     #208.5
        jl        ..B1.59       # Prob 82%                      #208.5
                                # LOE r12 r13 r15 ebx
..B1.68:                        # Preds ..B1.225
                                # Execution count [1.00e+00]: Infreq
        movl      $_ZSt4cout, %edi                              #208.5
        movl      $.L_2__STRING.13, %esi                        #208.5
..___tag_value_main.59:
#       std::operator<<<std::char_traits<char>>(std::basic_ostream<char, std::char_traits<char>> &, const char *)
        call      _ZStlsISt11char_traitsIcEERSt13basic_ostreamIcT_ES5_PKc #208.5
..___tag_value_main.60:
                                # LOE rax r12 r13 r15
..B1.69:                        # Preds ..B1.68
                                # Execution count [1.00e+00]: Infreq
        movq      %rax, %rdi                                    #208.5
                                # LOE rdi r12 r13 r15
..B1.70:                        # Preds ..B1.69
                                # Execution count [1.00e+00]: Infreq
        vmovss    168(%rsp), %xmm2                              #208.5
        movq      $0x8000000000000000, %rcx                     #208.5
        vmovss    .L_2il0floatpacket.28(%rip), %xmm1            #208.5
        vcomiss   %xmm1, %xmm2                                  #208.5
        vsubss    %xmm1, %xmm2, %xmm3                           #208.5
        vcmpgess  %xmm1, %xmm2, %xmm0                           #208.5
        jae       ..L61         # Prob 50%                      #208.5
        vmovaps   %xmm2, %xmm3                                  #208.5
..L61:                                                          #
        vcvttss2si %xmm3, %rsi                                  #208.5
        vmovd     %xmm0, %eax                                   #208.5
        movslq    %eax, %rax                                    #208.5
        andq      %rcx, %rax                                    #208.5
        addq      %rax, %rsi                                    #208.5
..___tag_value_main.62:
#       std::basic_ostream<char, std::char_traits<char>>::operator<<(std::basic_ostream<char, std::char_traits<char>> *, unsigned long long)
        call      _ZNSolsEy                                     #208.5
..___tag_value_main.63:
                                # LOE rax r12 r13 r15
..B1.72:                        # Preds ..B1.70
                                # Execution count [1.00e+00]: Infreq
        movq      %rax, %rdi                                    #208.5
        movl      $.L_2__STRING.0, %esi                         #208.5
..___tag_value_main.64:
#       std::operator<<<std::char_traits<char>>(std::basic_ostream<char, std::char_traits<char>> &, const char *)
        call      _ZStlsISt11char_traitsIcEERSt13basic_ostreamIcT_ES5_PKc #208.5
..___tag_value_main.65:
                                # LOE rax r12 r13 r15
..B1.73:                        # Preds ..B1.72
                                # Execution count [1.00e+00]: Infreq
        movq      %rax, %rdi                                    #208.5
                                # LOE rdi r12 r13 r15
..B1.74:                        # Preds ..B1.73
                                # Execution count [1.00e+00]: Infreq
        movl      176(%rsp), %eax                               #208.5
        testl     %eax, %eax                                    #208.5
        jle       ..B1.76       # Prob 16%                      #208.5
                                # LOE rdi r12 r13 r15 eax
..B1.75:                        # Preds ..B1.74
                                # Execution count [8.40e-01]: Infreq
        vmovss    172(%rsp), %xmm0                              #208.5
        vxorps    %xmm1, %xmm1, %xmm1                           #208.5
        vsqrtss   %xmm0, %xmm0, %xmm0                           #208.5
        vcvtsi2ss %eax, %xmm1, %xmm1                            #208.5
        vdivss    %xmm1, %xmm0, %xmm3                           #208.5
        jmp       ..B1.77       # Prob 100%                     #208.5
                                # LOE rdi r12 r13 r15 xmm3
..B1.76:                        # Preds ..B1.74
                                # Execution count [1.60e-01]: Infreq
        vmovss    96(%rsp), %xmm3                               #208.5[spill]
                                # LOE rdi r12 r13 r15 xmm3
..B1.77:                        # Preds ..B1.75 ..B1.76
                                # Execution count [1.00e+00]: Infreq
        vmovss    .L_2il0floatpacket.28(%rip), %xmm1            #208.5
        movq      $0x8000000000000000, %rcx                     #208.5
        vcomiss   %xmm1, %xmm3                                  #208.5
        vsubss    %xmm1, %xmm3, %xmm2                           #208.5
        vcmpgess  %xmm1, %xmm3, %xmm0                           #208.5
        jae       ..L66         # Prob 50%                      #208.5
        vmovaps   %xmm3, %xmm2                                  #208.5
..L66:                                                          #
        vcvttss2si %xmm2, %rsi                                  #208.5
        vmovd     %xmm0, %eax                                   #208.5
        movslq    %eax, %rax                                    #208.5
        andq      %rcx, %rax                                    #208.5
        addq      %rax, %rsi                                    #208.5
..___tag_value_main.67:
#       std::basic_ostream<char, std::char_traits<char>>::operator<<(std::basic_ostream<char, std::char_traits<char>> *, unsigned long long)
        call      _ZNSolsEy                                     #208.5
..___tag_value_main.68:
                                # LOE rax r12 r13 r15
..B1.79:                        # Preds ..B1.77
                                # Execution count [1.00e+00]: Infreq
        movq      %rax, %rdi                                    #208.5
        movl      $.L_2__STRING.1, %esi                         #208.5
..___tag_value_main.69:
#       std::operator<<<std::char_traits<char>>(std::basic_ostream<char, std::char_traits<char>> &, const char *)
        call      _ZStlsISt11char_traitsIcEERSt13basic_ostreamIcT_ES5_PKc #208.5
..___tag_value_main.70:
                                # LOE rax r12 r13 r15
..B1.81:                        # Preds ..B1.79
                                # Execution count [1.00e+00]: Infreq
        vmovss    168(%rsp), %xmm1                              #208.5
        vcomiss   96(%rsp), %xmm1                               #208.5[spill]
        ja        ..B1.83       # Prob 22%                      #208.5
                                # LOE rax r12 r13 r15 xmm1
..B1.82:                        # Preds ..B1.81
                                # Execution count [7.80e-01]: Infreq
        vmovss    96(%rsp), %xmm0                               #208.5[spill]
        jmp       ..B1.84       # Prob 100%                     #208.5
                                # LOE rax r12 r13 r15 xmm0
..B1.83:                        # Preds ..B1.81
                                # Execution count [2.20e-01]: Infreq
        vmovss    64(%rsp), %xmm0                               #208.66
        vdivss    %xmm1, %xmm0, %xmm0                           #208.5
                                # LOE rax r12 r13 r15 xmm0
..B1.84:                        # Preds ..B1.83 ..B1.82
                                # Execution count [1.00e+00]: Infreq
        movq      %rax, %rdi                                    #208.5
..___tag_value_main.71:
#       std::basic_ostream<char, std::char_traits<char>>::operator<<(std::basic_ostream<char, std::char_traits<char>> *, float)
        call      _ZNSolsEf                                     #208.5
..___tag_value_main.72:
                                # LOE rax r12 r13 r15
..B1.86:                        # Preds ..B1.84
                                # Execution count [1.00e+00]: Infreq
        movq      %rax, %rdi                                    #208.5
        movl      $.L_2__STRING.2, %esi                         #208.5
..___tag_value_main.73:
#       std::operator<<<std::char_traits<char>>(std::basic_ostream<char, std::char_traits<char>> &, const char *)
        call      _ZStlsISt11char_traitsIcEERSt13basic_ostreamIcT_ES5_PKc #208.5
..___tag_value_main.74:
                                # LOE r12 r13 r15
..B1.88:                        # Preds ..B1.86
                                # Execution count [1.00e+00]: Infreq
        movq      144(%rsp), %rbx                               #208.5
        cmpq      %r15, %rbx                                    #208.5
        je        ..B1.93       # Prob 10%                      #208.5
                                # LOE rbx r12 r13 r15
..B1.90:                        # Preds ..B1.88 ..B1.91
                                # Execution count [5.00e+00]: Infreq
        movq      %rbx, %rdi                                    #208.5
        movq      (%rbx), %rbx                                  #208.5
#       operator delete(void *)
        call      _ZdlPv                                        #208.5
                                # LOE rbx r12 r13 r15
..B1.91:                        # Preds ..B1.90
                                # Execution count [5.00e+00]: Infreq
        cmpq      %r15, %rbx                                    #208.5
        jne       ..B1.90       # Prob 82%                      #208.5
                                # LOE rbx r12 r13 r15
..B1.93:                        # Preds ..B1.91 ..B1.88
                                # Execution count [1.00e+00]: Infreq
        movl      $.L_2__STRING.14, %edi                        #215.5
        movl      $20, %esi                                     #215.5
        movq      %r13, %rdx                                    #215.5
        movq      %r15, 144(%rsp)                               #208.5
        movq      %r15, 152(%rsp)                               #208.5
        movq      $0, 160(%rsp)                                 #208.5
..___tag_value_main.75:
#       benchmarkSIMD<float, 1U>(char *, int, TimingStatistics &)
        call      _Z13benchmarkSIMDIfLj1EEvPciR16TimingStatistics #215.5
..___tag_value_main.76:
                                # LOE r12 r13
..B1.94:                        # Preds ..B1.93
                                # Execution count [1.00e+00]: Infreq
        movl      $.L_2__STRING.15, %edi                        #216.5
        movl      $20, %esi                                     #216.5
        movq      %r13, %rdx                                    #216.5
..___tag_value_main.77:
#       benchmarkVECTOR<float, 1U>(char *, int, TimingStatistics &)
        call      _Z15benchmarkVECTORIfLj1EEvPciR16TimingStatistics #216.5
..___tag_value_main.78:
                                # LOE r12 r13
..B1.95:                        # Preds ..B1.94
                                # Execution count [1.00e+00]: Infreq
        movl      $.L_2__STRING.16, %edi                        #217.5
        movl      $20, %esi                                     #217.5
        movq      %r13, %rdx                                    #217.5
..___tag_value_main.79:
#       benchmarkSIMD<float, 2U>(char *, int, TimingStatistics &)
        call      _Z13benchmarkSIMDIfLj2EEvPciR16TimingStatistics #217.5
..___tag_value_main.80:
                                # LOE r12 r13
..B1.96:                        # Preds ..B1.95
                                # Execution count [1.00e+00]: Infreq
        movl      $.L_2__STRING.17, %edi                        #218.5
        movl      $20, %esi                                     #218.5
        movq      %r13, %rdx                                    #218.5
..___tag_value_main.81:
#       benchmarkVECTOR<float, 2U>(char *, int, TimingStatistics &)
        call      _Z15benchmarkVECTORIfLj2EEvPciR16TimingStatistics #218.5
..___tag_value_main.82:
                                # LOE r12 r13
..B1.97:                        # Preds ..B1.96
                                # Execution count [1.00e+00]: Infreq
        movl      $.L_2__STRING.18, %edi                        #219.5
        movl      $20, %esi                                     #219.5
        movq      %r13, %rdx                                    #219.5
..___tag_value_main.83:
#       benchmarkSIMD<float, 4U>(char *, int, TimingStatistics &)
        call      _Z13benchmarkSIMDIfLj4EEvPciR16TimingStatistics #219.5
..___tag_value_main.84:
                                # LOE r12 r13
..B1.98:                        # Preds ..B1.97
                                # Execution count [1.00e+00]: Infreq
        movl      $.L_2__STRING.19, %edi                        #220.5
        movl      $20, %esi                                     #220.5
        movq      %r13, %rdx                                    #220.5
..___tag_value_main.85:
#       benchmarkVECTOR<float, 4U>(char *, int, TimingStatistics &)
        call      _Z15benchmarkVECTORIfLj4EEvPciR16TimingStatistics #220.5
..___tag_value_main.86:
                                # LOE r12 r13
..B1.99:                        # Preds ..B1.98
                                # Execution count [1.00e+00]: Infreq
        movl      $.L_2__STRING.20, %edi                        #221.5
        movl      $20, %esi                                     #221.5
        movq      %r13, %rdx                                    #221.5
..___tag_value_main.87:
#       benchmarkSIMD<float, 8U>(char *, int, TimingStatistics &)
        call      _Z13benchmarkSIMDIfLj8EEvPciR16TimingStatistics #221.5
..___tag_value_main.88:
                                # LOE r12 r13
..B1.100:                       # Preds ..B1.99
                                # Execution count [1.00e+00]: Infreq
        movl      $.L_2__STRING.21, %edi                        #222.5
        movl      $20, %esi                                     #222.5
        movq      %r13, %rdx                                    #222.5
..___tag_value_main.89:
#       benchmarkVECTOR<float, 8U>(char *, int, TimingStatistics &)
        call      _Z15benchmarkVECTORIfLj8EEvPciR16TimingStatistics #222.5
..___tag_value_main.90:
                                # LOE r12 r13
..B1.101:                       # Preds ..B1.100
                                # Execution count [1.00e+00]: Infreq
        movl      $.L_2__STRING.22, %edi                        #223.5
        movl      $20, %esi                                     #223.5
        movq      %r13, %rdx                                    #223.5
..___tag_value_main.91:
#       benchmarkSIMD<float, 16U>(char *, int, TimingStatistics &)
        call      _Z13benchmarkSIMDIfLj16EEvPciR16TimingStatistics #223.5
..___tag_value_main.92:
                                # LOE r12 r13
..B1.102:                       # Preds ..B1.101
                                # Execution count [1.00e+00]: Infreq
        movl      $.L_2__STRING.23, %edi                        #224.5
        movl      $20, %esi                                     #224.5
        movq      %r13, %rdx                                    #224.5
..___tag_value_main.93:
#       benchmarkVECTOR<float, 16U>(char *, int, TimingStatistics &)
        call      _Z15benchmarkVECTORIfLj16EEvPciR16TimingStatistics #224.5
..___tag_value_main.94:
                                # LOE r12 r13
..B1.103:                       # Preds ..B1.102
                                # Execution count [1.00e+00]: Infreq
        movl      $.L_2__STRING.24, %edi                        #225.5
        movl      $20, %esi                                     #225.5
        movq      %r13, %rdx                                    #225.5
..___tag_value_main.95:
#       benchmarkSIMD<float, 32U>(char *, int, TimingStatistics &)
        call      _Z13benchmarkSIMDIfLj32EEvPciR16TimingStatistics #225.5
..___tag_value_main.96:
                                # LOE r12 r13
..B1.104:                       # Preds ..B1.103
                                # Execution count [1.00e+00]: Infreq
        movl      $.L_2__STRING.25, %edi                        #226.5
        movl      $20, %esi                                     #226.5
        movq      %r13, %rdx                                    #226.5
..___tag_value_main.97:
#       benchmarkVECTOR<float, 32U>(char *, int, TimingStatistics &)
        call      _Z15benchmarkVECTORIfLj32EEvPciR16TimingStatistics #226.5
..___tag_value_main.98:
                                # LOE r12 r13
..B1.105:                       # Preds ..B1.104
                                # Execution count [1.00e+00]: Infreq
        xorl      %edx, %edx                                    #228.44
        lea       8(%rsp), %rdi                                 #228.44
        movq      %r12, (%rdi)                                  #228.5
        lea       80(%rsp), %rsi                                #228.44
        movq      $23, (%rsi)                                   #228.44
..___tag_value_main.99:
#       std::__cxx11::basic_string<char, std::char_traits<char>, std::allocator<char>>::_M_create(std::__cxx11::basic_string<char, std::char_traits<char>, std::allocator<char>> *, std::__cxx11::basic_string<char, std::char_traits<char>, std::allocator<char>>::size_type &, std::__cxx11::basic_string<char, std::char_traits<char>, std::allocator<char>>::size_type)
        call      _ZNSt7__cxx1112basic_stringIcSt11char_traitsIcESaIcEE9_M_createERmm #228.44
..___tag_value_main.100:
                                # LOE rax r12 r13
..B1.106:                       # Preds ..B1.105
                                # Execution count [1.00e+00]: Infreq
        movq      %rax, %r9                                     #228.44
                                # LOE r9 r12 r13
..B1.107:                       # Preds ..B1.106
                                # Execution count [2.19e-01]: Infreq
        movq      80(%rsp), %rax                                #228.44
        movq      %r9, 8(%rsp)                                  #228.5
        movq      %rax, 24(%rsp)                                #228.5
        vmovups   .L_2__STRING.26(%rip), %xmm0                  #228.44
        vmovups   %xmm0, (%r9)                                  #228.44
        movl      16+.L_2__STRING.26(%rip), %ecx                #228.44
        movl      %ecx, 16(%r9)                                 #228.44
        movzwl    20+.L_2__STRING.26(%rip), %ebx                #228.44
        movw      %bx, 20(%r9)                                  #228.44
        movb      22+.L_2__STRING.26(%rip), %r8b                #228.44
        movb      %r8b, 22(%r9)                                 #228.44
                                # LOE r12 r13
..B1.108:                       # Preds ..B1.107
                                # Execution count [1.10e-01]: Infreq
        movq      8(%rsp), %rax                                 #228.5
        lea       184(%rsp), %r15                               #228.5
        movq      -104(%r15), %rcx                              #228.44
        movq      %r15, %rdi                                    #228.5
        movq      %rcx, 16(%rsp)                                #228.5
        movb      $0, (%rax,%rcx)                               #228.44
..___tag_value_main.101:
#       std::__cxx11::list<unsigned long long, std::allocator<unsigned long long>>::list(std::__cxx11::list<unsigned long long, std::allocator<unsigned long long>> *)
        call      _ZNSt7__cxx114listIySaIyEEC1Ev                #228.5
..___tag_value_main.102:
                                # LOE r12 r13 r15
..B1.109:                       # Preds ..B1.108
                                # Execution count [9.70e-01]: Infreq
        vmovss    96(%rsp), %xmm0                               #228.5[spill]
        xorl      %ebx, %ebx                                    #228.5
        vmovss    %xmm0, 208(%rsp)                              #228.5
        vmovss    %xmm0, 212(%rsp)                              #228.5
        movl      $0, 216(%rsp)                                 #228.5
                                # LOE r12 r13 r15 ebx
..B1.110:                       # Preds ..B1.227 ..B1.109
                                # Execution count [5.39e+00]: Infreq
..___tag_value_main.103:
#       run_scalar_naive<double, int64_t>()
        call      _Z16run_scalar_naiveIdlEyv                    #228.5
..___tag_value_main.104:
                                # LOE rax r12 r13 r15 ebx
..B1.111:                       # Preds ..B1.110
                                # Execution count [5.39e+00]: Infreq
        movq      %rax, %r14                                    #228.5
                                # LOE r12 r13 r14 r15 ebx
..B1.112:                       # Preds ..B1.111
                                # Execution count [5.39e+00]: Infreq
        movl      $24, %edi                                     #228.5
..___tag_value_main.105:
#       operator new(std::size_t)
        call      _Znwm                                         #228.5
..___tag_value_main.106:
                                # LOE rax r12 r13 r14 r15 ebx
..B1.114:                       # Preds ..B1.112
                                # Execution count [5.39e+00]: Infreq
        testq     %rax, %rax                                    #228.5
        je        ..B1.117      # Prob 32%                      #228.5
                                # LOE rax r12 r13 r14 r15 ebx
..B1.115:                       # Preds ..B1.114
                                # Execution count [3.63e+00]: Infreq
        vpxor     %xmm0, %xmm0, %xmm0                           #228.5
        vmovups   %xmm0, (%rax)                                 #228.5
                                # LOE rax r12 r13 r14 r15 ebx
..B1.116:                       # Preds ..B1.115
                                # Execution count [3.63e+00]: Infreq
        movq      %r14, 16(%rax)                                #228.5
                                # LOE rax r12 r13 r14 r15 ebx
..B1.117:                       # Preds ..B1.114 ..B1.116
                                # Execution count [5.39e+00]: Infreq
        movq      %rax, %rdi                                    #228.5
        movq      %r15, %rsi                                    #228.5
#       std::__detail::_List_node_base::_M_hook(std::__detail::_List_node_base *, std::__detail::_List_node_base *)
        call      _ZNSt8__detail15_List_node_base7_M_hookEPS0_  #228.5
                                # LOE r12 r13 r14 r15 ebx
..B1.118:                       # Preds ..B1.117
                                # Execution count [5.39e+00]: Infreq
        vxorps    %xmm4, %xmm4, %xmm4                           #228.5
        incq      200(%rsp)                                     #228.5
        vmovss    208(%rsp), %xmm2                              #228.5
        vcvtsi2ssq %r14, %xmm4, %xmm4                           #228.5
        testq     %r14, %r14                                    #228.5
        jge       ..B1.227      # Prob 70%                      #228.5
                                # LOE r12 r13 r14 r15 ebx xmm2 xmm4
..B1.228:                       # Preds ..B1.118
                                # Execution count [1.62e+00]: Infreq
        movq      %r14, %rax                                    #228.5
        vxorps    %xmm0, %xmm0, %xmm0                           #228.5
        shrq      $1, %r14                                      #228.5
        andq      $1, %rax                                      #228.5
        orq       %r14, %rax                                    #228.5
        vcvtsi2ssq %rax, %xmm0, %xmm0                           #228.5
        vaddss    %xmm0, %xmm0, %xmm4                           #228.5
                                # LOE r12 r13 r15 ebx xmm2 xmm4
..B1.227:                       # Preds ..B1.228 ..B1.118
                                # Execution count [5.39e+00]: Infreq
        vxorps    %xmm0, %xmm0, %xmm0                           #228.5
        incl      %ebx                                          #228.5
        movl      216(%rsp), %eax                               #228.5
        vsubss    %xmm2, %xmm4, %xmm5                           #228.5
        vcvtsi2ss %eax, %xmm0, %xmm0                            #228.5
        incl      %eax                                          #228.5
        vaddss    .L_2il0floatpacket.29(%rip), %xmm0, %xmm1     #228.5
        vdivss    %xmm1, %xmm5, %xmm3                           #228.5
        movl      %eax, 216(%rsp)                               #228.5
        vaddss    %xmm3, %xmm2, %xmm2                           #228.5
        vmovss    %xmm2, 208(%rsp)                              #228.5
        vsubss    %xmm2, %xmm4, %xmm4                           #228.5
        vfmadd213ss 212(%rsp), %xmm4, %xmm5                     #228.5
        vmovss    %xmm5, 212(%rsp)                              #228.5
        cmpl      $20, %ebx                                     #228.5
        jl        ..B1.110      # Prob 82%                      #228.5
                                # LOE r12 r13 r15 ebx
..B1.119:                       # Preds ..B1.227
                                # Execution count [1.00e+00]: Infreq
        movl      $_ZSt4cout, %edi                              #228.5
        movq      8(%rsp), %rsi                                 #228.5
..___tag_value_main.107:
#       std::operator<<<std::char_traits<char>>(std::basic_ostream<char, std::char_traits<char>> &, const char *)
        call      _ZStlsISt11char_traitsIcEERSt13basic_ostreamIcT_ES5_PKc #228.5
..___tag_value_main.108:
                                # LOE rax r12 r13 r15
..B1.120:                       # Preds ..B1.119
                                # Execution count [1.00e+00]: Infreq
        movq      %rax, %rdi                                    #228.5
                                # LOE rdi r12 r13 r15
..B1.121:                       # Preds ..B1.120
                                # Execution count [1.00e+00]: Infreq
        vmovss    208(%rsp), %xmm2                              #228.5
        movq      $0x8000000000000000, %rcx                     #228.5
        vmovss    .L_2il0floatpacket.28(%rip), %xmm1            #228.5
        vcomiss   %xmm1, %xmm2                                  #228.5
        vsubss    %xmm1, %xmm2, %xmm3                           #228.5
        vcmpgess  %xmm1, %xmm2, %xmm0                           #228.5
        jae       ..L109        # Prob 50%                      #228.5
        vmovaps   %xmm2, %xmm3                                  #228.5
..L109:                                                         #
        vcvttss2si %xmm3, %rsi                                  #228.5
        vmovd     %xmm0, %eax                                   #228.5
        movslq    %eax, %rax                                    #228.5
        andq      %rcx, %rax                                    #228.5
        addq      %rax, %rsi                                    #228.5
..___tag_value_main.110:
#       std::basic_ostream<char, std::char_traits<char>>::operator<<(std::basic_ostream<char, std::char_traits<char>> *, unsigned long long)
        call      _ZNSolsEy                                     #228.5
..___tag_value_main.111:
                                # LOE rax r12 r13 r15
..B1.123:                       # Preds ..B1.121
                                # Execution count [1.00e+00]: Infreq
        movq      %rax, %rdi                                    #228.5
        movl      $.L_2__STRING.0, %esi                         #228.5
..___tag_value_main.112:
#       std::operator<<<std::char_traits<char>>(std::basic_ostream<char, std::char_traits<char>> &, const char *)
        call      _ZStlsISt11char_traitsIcEERSt13basic_ostreamIcT_ES5_PKc #228.5
..___tag_value_main.113:
                                # LOE rax r12 r13 r15
..B1.124:                       # Preds ..B1.123
                                # Execution count [1.00e+00]: Infreq
        movq      %rax, %rdi                                    #228.5
                                # LOE rdi r12 r13 r15
..B1.125:                       # Preds ..B1.124
                                # Execution count [1.00e+00]: Infreq
        movl      216(%rsp), %eax                               #228.5
        testl     %eax, %eax                                    #228.5
        jle       ..B1.127      # Prob 16%                      #228.5
                                # LOE rdi r12 r13 r15 eax
..B1.126:                       # Preds ..B1.125
                                # Execution count [8.40e-01]: Infreq
        vmovss    212(%rsp), %xmm0                              #228.5
        vxorps    %xmm1, %xmm1, %xmm1                           #228.5
        vsqrtss   %xmm0, %xmm0, %xmm0                           #228.5
        vcvtsi2ss %eax, %xmm1, %xmm1                            #228.5
        vdivss    %xmm1, %xmm0, %xmm3                           #228.5
        jmp       ..B1.128      # Prob 100%                     #228.5
                                # LOE rdi r12 r13 r15 xmm3
..B1.127:                       # Preds ..B1.125
                                # Execution count [1.60e-01]: Infreq
        vmovss    96(%rsp), %xmm3                               #228.5[spill]
                                # LOE rdi r12 r13 r15 xmm3
..B1.128:                       # Preds ..B1.126 ..B1.127
                                # Execution count [1.00e+00]: Infreq
        vmovss    .L_2il0floatpacket.28(%rip), %xmm1            #228.5
        movq      $0x8000000000000000, %rcx                     #228.5
        vcomiss   %xmm1, %xmm3                                  #228.5
        vsubss    %xmm1, %xmm3, %xmm2                           #228.5
        vcmpgess  %xmm1, %xmm3, %xmm0                           #228.5
        jae       ..L114        # Prob 50%                      #228.5
        vmovaps   %xmm3, %xmm2                                  #228.5
..L114:                                                         #
        vcvttss2si %xmm2, %rsi                                  #228.5
        vmovd     %xmm0, %eax                                   #228.5
        movslq    %eax, %rax                                    #228.5
        andq      %rcx, %rax                                    #228.5
        addq      %rax, %rsi                                    #228.5
..___tag_value_main.115:
#       std::basic_ostream<char, std::char_traits<char>>::operator<<(std::basic_ostream<char, std::char_traits<char>> *, unsigned long long)
        call      _ZNSolsEy                                     #228.5
..___tag_value_main.116:
                                # LOE rax r12 r13 r15
..B1.130:                       # Preds ..B1.128
                                # Execution count [1.00e+00]: Infreq
        movq      %rax, %rdi                                    #228.5
        movl      $.L_2__STRING.1, %esi                         #228.5
..___tag_value_main.117:
#       std::operator<<<std::char_traits<char>>(std::basic_ostream<char, std::char_traits<char>> &, const char *)
        call      _ZStlsISt11char_traitsIcEERSt13basic_ostreamIcT_ES5_PKc #228.5
..___tag_value_main.118:
                                # LOE rax r12 r13 r15
..B1.132:                       # Preds ..B1.130
                                # Execution count [1.00e+00]: Infreq
        vmovss    208(%rsp), %xmm1                              #228.5
        vcomiss   96(%rsp), %xmm1                               #228.5[spill]
        ja        ..B1.134      # Prob 22%                      #228.5
                                # LOE rax r12 r13 r15 xmm1
..B1.133:                       # Preds ..B1.132
                                # Execution count [7.80e-01]: Infreq
        vmovss    96(%rsp), %xmm0                               #228.5[spill]
        jmp       ..B1.135      # Prob 100%                     #228.5
                                # LOE rax r12 r13 r15 xmm0
..B1.134:                       # Preds ..B1.132
                                # Execution count [2.20e-01]: Infreq
        vmovss    64(%rsp), %xmm0                               #228.84
        vdivss    %xmm1, %xmm0, %xmm0                           #228.5
                                # LOE rax r12 r13 r15 xmm0
..B1.135:                       # Preds ..B1.134 ..B1.133
                                # Execution count [1.00e+00]: Infreq
        movq      %rax, %rdi                                    #228.5
..___tag_value_main.119:
#       std::basic_ostream<char, std::char_traits<char>>::operator<<(std::basic_ostream<char, std::char_traits<char>> *, float)
        call      _ZNSolsEf                                     #228.5
..___tag_value_main.120:
                                # LOE rax r12 r13 r15
..B1.137:                       # Preds ..B1.135
                                # Execution count [1.00e+00]: Infreq
        movq      %rax, %rdi                                    #228.5
        movl      $.L_2__STRING.2, %esi                         #228.5
..___tag_value_main.121:
#       std::operator<<<std::char_traits<char>>(std::basic_ostream<char, std::char_traits<char>> &, const char *)
        call      _ZStlsISt11char_traitsIcEERSt13basic_ostreamIcT_ES5_PKc #228.5
..___tag_value_main.122:
                                # LOE r12 r13 r15
..B1.139:                       # Preds ..B1.137
                                # Execution count [1.00e+00]: Infreq
        movq      184(%rsp), %rbx                               #228.5
        cmpq      %r15, %rbx                                    #228.5
        je        ..B1.144      # Prob 10%                      #228.5
                                # LOE rbx r12 r13 r15
..B1.141:                       # Preds ..B1.139 ..B1.142
                                # Execution count [5.00e+00]: Infreq
        movq      %rbx, %rdi                                    #228.5
        movq      (%rbx), %rbx                                  #228.5
#       operator delete(void *)
        call      _ZdlPv                                        #228.5
                                # LOE rbx r12 r13 r15
..B1.142:                       # Preds ..B1.141
                                # Execution count [5.00e+00]: Infreq
        cmpq      %r15, %rbx                                    #228.5
        jne       ..B1.141      # Prob 82%                      #228.5
                                # LOE rbx r12 r13 r15
..B1.144:                       # Preds ..B1.142 ..B1.139
                                # Execution count [1.00e+00]: Infreq
        movq      8(%rsp), %rdi                                 #228.5
        movq      %r15, 184(%rsp)                               #228.5
        movq      %r15, 192(%rsp)                               #228.5
        movq      $0, 200(%rsp)                                 #228.5
        cmpq      %r12, %rdi                                    #228.5
        je        ..B1.146      # Prob 78%                      #228.5
                                # LOE rdi r13
..B1.145:                       # Preds ..B1.144
                                # Execution count [2.20e-01]: Infreq
#       operator delete(void *)
        call      _ZdlPv                                        #228.5
                                # LOE r13
..B1.146:                       # Preds ..B1.144 ..B1.145
                                # Execution count [1.00e+00]: Infreq
        movl      $.L_2__STRING.27, %edi                        #230.5
        movl      $20, %esi                                     #230.5
        movq      %r13, %rdx                                    #230.5
..___tag_value_main.123:
#       benchmarkSIMD<double, 1U>(char *, int, TimingStatistics &)
        call      _Z13benchmarkSIMDIdLj1EEvPciR16TimingStatistics #230.5
..___tag_value_main.124:
                                # LOE r13
..B1.147:                       # Preds ..B1.146
                                # Execution count [1.00e+00]: Infreq
        movl      $.L_2__STRING.28, %edi                        #231.5
        movl      $20, %esi                                     #231.5
        movq      %r13, %rdx                                    #231.5
..___tag_value_main.125:
#       benchmarkSIMD<double, 2U>(char *, int, TimingStatistics &)
        call      _Z13benchmarkSIMDIdLj2EEvPciR16TimingStatistics #231.5
..___tag_value_main.126:
                                # LOE r13
..B1.148:                       # Preds ..B1.147
                                # Execution count [1.00e+00]: Infreq
        movl      $.L_2__STRING.29, %edi                        #232.5
        movl      $20, %esi                                     #232.5
        movq      %r13, %rdx                                    #232.5
..___tag_value_main.127:
#       benchmarkSIMD<double, 4U>(char *, int, TimingStatistics &)
        call      _Z13benchmarkSIMDIdLj4EEvPciR16TimingStatistics #232.5
..___tag_value_main.128:
                                # LOE r13
..B1.149:                       # Preds ..B1.148
                                # Execution count [1.00e+00]: Infreq
        movl      $.L_2__STRING.30, %edi                        #233.5
        movl      $20, %esi                                     #233.5
        movq      %r13, %rdx                                    #233.5
..___tag_value_main.129:
#       benchmarkSIMD<double, 8U>(char *, int, TimingStatistics &)
        call      _Z13benchmarkSIMDIdLj8EEvPciR16TimingStatistics #233.5
..___tag_value_main.130:
                                # LOE r13
..B1.150:                       # Preds ..B1.149
                                # Execution count [1.00e+00]: Infreq
        lea       224(%rsp), %r14                               #234.5
        movq      %r14, %rdi                                    #234.5
..___tag_value_main.131:
#       std::__cxx11::list<unsigned long long, std::allocator<unsigned long long>>::list(std::__cxx11::list<unsigned long long, std::allocator<unsigned long long>> *)
        call      _ZNSt7__cxx114listIySaIyEEC1Ev                #234.5
..___tag_value_main.132:
                                # LOE r13 r14
..B1.151:                       # Preds ..B1.150
                                # Execution count [9.70e-01]: Infreq
        vmovss    96(%rsp), %xmm0                               #234.5[spill]
        xorl      %ebx, %ebx                                    #234.5
        vmovss    %xmm0, 248(%rsp)                              #234.5
        vmovss    %xmm0, 252(%rsp)                              #234.5
        movl      $0, 256(%rsp)                                 #234.5
                                # LOE r13 r14 ebx
..B1.152:                       # Preds ..B1.229 ..B1.151
                                # Execution count [5.39e+00]: Infreq
..___tag_value_main.133:
#       run_SIMD<double, 16U>()
        call      _Z8run_SIMDIdLj16EEyv                         #234.5
..___tag_value_main.134:
                                # LOE rax r13 r14 ebx
..B1.153:                       # Preds ..B1.152
                                # Execution count [5.39e+00]: Infreq
        movq      %rax, %r12                                    #234.5
                                # LOE r12 r13 r14 ebx
..B1.154:                       # Preds ..B1.153
                                # Execution count [5.39e+00]: Infreq
        movl      $24, %edi                                     #234.5
..___tag_value_main.135:
#       operator new(std::size_t)
        call      _Znwm                                         #234.5
..___tag_value_main.136:
                                # LOE rax r12 r13 r14 ebx
..B1.156:                       # Preds ..B1.154
                                # Execution count [5.39e+00]: Infreq
        testq     %rax, %rax                                    #234.5
        je        ..B1.159      # Prob 32%                      #234.5
                                # LOE rax r12 r13 r14 ebx
..B1.157:                       # Preds ..B1.156
                                # Execution count [3.63e+00]: Infreq
        vpxor     %xmm0, %xmm0, %xmm0                           #234.5
        vmovups   %xmm0, (%rax)                                 #234.5
                                # LOE rax r12 r13 r14 ebx
..B1.158:                       # Preds ..B1.157
                                # Execution count [3.63e+00]: Infreq
        movq      %r12, 16(%rax)                                #234.5
                                # LOE rax r12 r13 r14 ebx
..B1.159:                       # Preds ..B1.156 ..B1.158
                                # Execution count [5.39e+00]: Infreq
        movq      %rax, %rdi                                    #234.5
        movq      %r14, %rsi                                    #234.5
#       std::__detail::_List_node_base::_M_hook(std::__detail::_List_node_base *, std::__detail::_List_node_base *)
        call      _ZNSt8__detail15_List_node_base7_M_hookEPS0_  #234.5
                                # LOE r12 r13 r14 ebx
..B1.160:                       # Preds ..B1.159
                                # Execution count [5.39e+00]: Infreq
        vxorps    %xmm4, %xmm4, %xmm4                           #234.5
        incq      240(%rsp)                                     #234.5
        vmovss    248(%rsp), %xmm2                              #234.5
        vcvtsi2ssq %r12, %xmm4, %xmm4                           #234.5
        testq     %r12, %r12                                    #234.5
        jge       ..B1.229      # Prob 70%                      #234.5
                                # LOE r12 r13 r14 ebx xmm2 xmm4
..B1.230:                       # Preds ..B1.160
                                # Execution count [1.62e+00]: Infreq
        movq      %r12, %rax                                    #234.5
        vxorps    %xmm0, %xmm0, %xmm0                           #234.5
        shrq      $1, %r12                                      #234.5
        andq      $1, %rax                                      #234.5
        orq       %r12, %rax                                    #234.5
        vcvtsi2ssq %rax, %xmm0, %xmm0                           #234.5
        vaddss    %xmm0, %xmm0, %xmm4                           #234.5
                                # LOE r13 r14 ebx xmm2 xmm4
..B1.229:                       # Preds ..B1.230 ..B1.160
                                # Execution count [5.39e+00]: Infreq
        vxorps    %xmm0, %xmm0, %xmm0                           #234.5
        incl      %ebx                                          #234.5
        movl      256(%rsp), %eax                               #234.5
        vsubss    %xmm2, %xmm4, %xmm5                           #234.5
        vcvtsi2ss %eax, %xmm0, %xmm0                            #234.5
        incl      %eax                                          #234.5
        vaddss    .L_2il0floatpacket.29(%rip), %xmm0, %xmm1     #234.5
        vdivss    %xmm1, %xmm5, %xmm3                           #234.5
        movl      %eax, 256(%rsp)                               #234.5
        vaddss    %xmm3, %xmm2, %xmm2                           #234.5
        vmovss    %xmm2, 248(%rsp)                              #234.5
        vsubss    %xmm2, %xmm4, %xmm4                           #234.5
        vfmadd213ss 252(%rsp), %xmm4, %xmm5                     #234.5
        vmovss    %xmm5, 252(%rsp)                              #234.5
        cmpl      $20, %ebx                                     #234.5
        jl        ..B1.152      # Prob 82%                      #234.5
                                # LOE r13 r14 ebx
..B1.161:                       # Preds ..B1.229
                                # Execution count [1.00e+00]: Infreq
        movl      $_ZSt4cout, %edi                              #234.5
        movl      $.L_2__STRING.31, %esi                        #234.5
..___tag_value_main.137:
#       std::operator<<<std::char_traits<char>>(std::basic_ostream<char, std::char_traits<char>> &, const char *)
        call      _ZStlsISt11char_traitsIcEERSt13basic_ostreamIcT_ES5_PKc #234.5
..___tag_value_main.138:
                                # LOE rax r13 r14
..B1.162:                       # Preds ..B1.161
                                # Execution count [1.00e+00]: Infreq
        movq      %rax, %rdi                                    #234.5
                                # LOE rdi r13 r14
..B1.163:                       # Preds ..B1.162
                                # Execution count [1.00e+00]: Infreq
        vmovss    248(%rsp), %xmm2                              #234.5
        movq      $0x8000000000000000, %rcx                     #234.5
        vmovss    .L_2il0floatpacket.28(%rip), %xmm1            #234.5
        vcomiss   %xmm1, %xmm2                                  #234.5
        vsubss    %xmm1, %xmm2, %xmm3                           #234.5
        vcmpgess  %xmm1, %xmm2, %xmm0                           #234.5
        jae       ..L139        # Prob 50%                      #234.5
        vmovaps   %xmm2, %xmm3                                  #234.5
..L139:                                                         #
        vcvttss2si %xmm3, %rsi                                  #234.5
        vmovd     %xmm0, %eax                                   #234.5
        movslq    %eax, %rax                                    #234.5
        andq      %rcx, %rax                                    #234.5
        addq      %rax, %rsi                                    #234.5
..___tag_value_main.140:
#       std::basic_ostream<char, std::char_traits<char>>::operator<<(std::basic_ostream<char, std::char_traits<char>> *, unsigned long long)
        call      _ZNSolsEy                                     #234.5
..___tag_value_main.141:
                                # LOE rax r13 r14
..B1.165:                       # Preds ..B1.163
                                # Execution count [1.00e+00]: Infreq
        movq      %rax, %rdi                                    #234.5
        movl      $.L_2__STRING.0, %esi                         #234.5
..___tag_value_main.142:
#       std::operator<<<std::char_traits<char>>(std::basic_ostream<char, std::char_traits<char>> &, const char *)
        call      _ZStlsISt11char_traitsIcEERSt13basic_ostreamIcT_ES5_PKc #234.5
..___tag_value_main.143:
                                # LOE rax r13 r14
..B1.166:                       # Preds ..B1.165
                                # Execution count [1.00e+00]: Infreq
        movq      %rax, %rdi                                    #234.5
                                # LOE rdi r13 r14
..B1.167:                       # Preds ..B1.166
                                # Execution count [1.00e+00]: Infreq
        movl      256(%rsp), %eax                               #234.5
        testl     %eax, %eax                                    #234.5
        jle       ..B1.169      # Prob 16%                      #234.5
                                # LOE rdi r13 r14 eax
..B1.168:                       # Preds ..B1.167
                                # Execution count [8.40e-01]: Infreq
        vmovss    252(%rsp), %xmm0                              #234.5
        vxorps    %xmm1, %xmm1, %xmm1                           #234.5
        vsqrtss   %xmm0, %xmm0, %xmm0                           #234.5
        vcvtsi2ss %eax, %xmm1, %xmm1                            #234.5
        vdivss    %xmm1, %xmm0, %xmm3                           #234.5
        jmp       ..B1.170      # Prob 100%                     #234.5
                                # LOE rdi r13 r14 xmm3
..B1.169:                       # Preds ..B1.167
                                # Execution count [1.60e-01]: Infreq
        vmovss    96(%rsp), %xmm3                               #234.5[spill]
                                # LOE rdi r13 r14 xmm3
..B1.170:                       # Preds ..B1.168 ..B1.169
                                # Execution count [1.00e+00]: Infreq
        vmovss    .L_2il0floatpacket.28(%rip), %xmm1            #234.5
        movq      $0x8000000000000000, %rcx                     #234.5
        vcomiss   %xmm1, %xmm3                                  #234.5
        vsubss    %xmm1, %xmm3, %xmm2                           #234.5
        vcmpgess  %xmm1, %xmm3, %xmm0                           #234.5
        jae       ..L144        # Prob 50%                      #234.5
        vmovaps   %xmm3, %xmm2                                  #234.5
..L144:                                                         #
        vcvttss2si %xmm2, %rsi                                  #234.5
        vmovd     %xmm0, %eax                                   #234.5
        movslq    %eax, %rax                                    #234.5
        andq      %rcx, %rax                                    #234.5
        addq      %rax, %rsi                                    #234.5
..___tag_value_main.145:
#       std::basic_ostream<char, std::char_traits<char>>::operator<<(std::basic_ostream<char, std::char_traits<char>> *, unsigned long long)
        call      _ZNSolsEy                                     #234.5
..___tag_value_main.146:
                                # LOE rax r13 r14
..B1.172:                       # Preds ..B1.170
                                # Execution count [1.00e+00]: Infreq
        movq      %rax, %rdi                                    #234.5
        movl      $.L_2__STRING.1, %esi                         #234.5
..___tag_value_main.147:
#       std::operator<<<std::char_traits<char>>(std::basic_ostream<char, std::char_traits<char>> &, const char *)
        call      _ZStlsISt11char_traitsIcEERSt13basic_ostreamIcT_ES5_PKc #234.5
..___tag_value_main.148:
                                # LOE rax r13 r14
..B1.174:                       # Preds ..B1.172
                                # Execution count [1.00e+00]: Infreq
        vmovss    248(%rsp), %xmm1                              #234.5
        vcomiss   96(%rsp), %xmm1                               #234.5[spill]
        jbe       ..B1.177      # Prob 78%                      #234.5
                                # LOE rax r13 r14 xmm1
..B1.176:                       # Preds ..B1.174
                                # Execution count [2.20e-01]: Infreq
        vmovss    64(%rsp), %xmm0                               #234.71
        vdivss    %xmm1, %xmm0, %xmm1                           #234.5
        vmovss    %xmm1, 96(%rsp)                               #234.5[spill]
                                # LOE rax r13 r14
..B1.177:                       # Preds ..B1.174 ..B1.176
                                # Execution count [1.00e+00]: Infreq
        vmovss    96(%rsp), %xmm0                               #234.5[spill]
        movq      %rax, %rdi                                    #234.5
..___tag_value_main.149:
#       std::basic_ostream<char, std::char_traits<char>>::operator<<(std::basic_ostream<char, std::char_traits<char>> *, float)
        call      _ZNSolsEf                                     #234.5
..___tag_value_main.150:
                                # LOE rax r13 r14
..B1.179:                       # Preds ..B1.177
                                # Execution count [1.00e+00]: Infreq
        movq      %rax, %rdi                                    #234.5
        movl      $.L_2__STRING.2, %esi                         #234.5
..___tag_value_main.151:
#       std::operator<<<std::char_traits<char>>(std::basic_ostream<char, std::char_traits<char>> &, const char *)
        call      _ZStlsISt11char_traitsIcEERSt13basic_ostreamIcT_ES5_PKc #234.5
..___tag_value_main.152:
                                # LOE r13 r14
..B1.181:                       # Preds ..B1.179
                                # Execution count [1.00e+00]: Infreq
        movq      224(%rsp), %rbx                               #234.5
        cmpq      %r14, %rbx                                    #234.5
        je        ..B1.186      # Prob 10%                      #234.5
                                # LOE rbx r13 r14
..B1.183:                       # Preds ..B1.181 ..B1.184
                                # Execution count [5.00e+00]: Infreq
        movq      %rbx, %rdi                                    #234.5
        movq      (%rbx), %rbx                                  #234.5
#       operator delete(void *)
        call      _ZdlPv                                        #234.5
                                # LOE rbx r13 r14
..B1.184:                       # Preds ..B1.183
                                # Execution count [5.00e+00]: Infreq
        cmpq      %r14, %rbx                                    #234.5
        jne       ..B1.183      # Prob 82%                      #234.5
                                # LOE rbx r13 r14
..B1.186:                       # Preds ..B1.184 ..B1.181
                                # Execution count [1.00e+00]: Infreq
        movq      40(%rsp), %rbx                                #236.5
        cmpq      %r13, %rbx                                    #236.5
        je        ..B1.191      # Prob 10%                      #236.5
                                # LOE rbx r13 r14
..B1.187:                       # Preds ..B1.186
                                # Execution count [8.99e-01]: Infreq
        movq      %r14, 232(%rsp)                               #234.5
        movq      %r14, 224(%rsp)                               #234.5
        movq      $0, 240(%rsp)                                 #234.5
                                # LOE rbx r13
..B1.188:                       # Preds ..B1.189 ..B1.187
                                # Execution count [5.00e+00]: Infreq
        movq      %rbx, %rdi                                    #236.5
        movq      (%rbx), %rbx                                  #236.5
#       operator delete(void *)
        call      _ZdlPv                                        #236.5
                                # LOE rbx r13
..B1.189:                       # Preds ..B1.188
                                # Execution count [5.00e+00]: Infreq
        cmpq      %r13, %rbx                                    #236.5
        jne       ..B1.188      # Prob 82%                      #236.5
                                # LOE rbx r13
..B1.191:                       # Preds ..B1.189 ..B1.186
                                # Execution count [1.00e+00]: Infreq
        movq      %r13, 40(%rsp)                                #236.5
        xorl      %eax, %eax                                    #236.12
        movq      %r13, 48(%rsp)                                #236.5
        movq      $0, 56(%rsp)                                  #236.5
        addq      $344, %rsp                                    #236.12
	.cfi_restore 3
        popq      %rbx                                          #236.12
	.cfi_restore 15
        popq      %r15                                          #236.12
	.cfi_restore 14
        popq      %r14                                          #236.12
	.cfi_restore 13
        popq      %r13                                          #236.12
	.cfi_restore 12
        popq      %r12                                          #236.12
        movq      %rbp, %rsp                                    #236.12
        popq      %rbp                                          #236.12
	.cfi_def_cfa 7, 8
	.cfi_restore 6
        ret                                                     #236.12
	.cfi_def_cfa 6, 16
	.cfi_escape 0x10, 0x03, 0x0e, 0x38, 0x1c, 0x0d, 0x80, 0xff, 0xff, 0xff, 0x1a, 0x0d, 0xd8, 0xff, 0xff, 0xff, 0x22
	.cfi_offset 6, -16
	.cfi_escape 0x10, 0x0c, 0x0e, 0x38, 0x1c, 0x0d, 0x80, 0xff, 0xff, 0xff, 0x1a, 0x0d, 0xf8, 0xff, 0xff, 0xff, 0x22
	.cfi_escape 0x10, 0x0d, 0x0e, 0x38, 0x1c, 0x0d, 0x80, 0xff, 0xff, 0xff, 0x1a, 0x0d, 0xf0, 0xff, 0xff, 0xff, 0x22
	.cfi_escape 0x10, 0x0e, 0x0e, 0x38, 0x1c, 0x0d, 0x80, 0xff, 0xff, 0xff, 0x1a, 0x0d, 0xe8, 0xff, 0xff, 0xff, 0x22
	.cfi_escape 0x10, 0x0f, 0x0e, 0x38, 0x1c, 0x0d, 0x80, 0xff, 0xff, 0xff, 0x1a, 0x0d, 0xe0, 0xff, 0xff, 0xff, 0x22
                                # LOE
..___tag_value_main.8:
..B1.192:                       # Preds ..B1.179 ..B1.177 ..B1.172 ..B1.170 ..B1.165
                                #       ..B1.163 ..B1.161 ..B1.154 ..B1.152
                                # Execution count [0.00e+00]: Infreq
        movq      %rax, (%rsp)                                  #234.5
                                # LOE
..B1.193:                       # Preds ..B1.192
                                # Execution count [0.00e+00]: Infreq
        lea       224(%rsp), %rdi                               #234.5
..___tag_value_main.167:
#       TimingStatistics::~TimingStatistics(TimingStatistics *)
        call      _ZN16TimingStatisticsD1Ev                     #234.5
..___tag_value_main.168:
                                # LOE
..B1.195:                       # Preds ..B1.237 ..B1.212 ..B1.206 ..B1.204 ..B1.201
                                #       ..B1.236 ..B1.193 ..B1.197
                                # Execution count [0.00e+00]: Infreq
        lea       40(%rsp), %rdi                                #202.22
..___tag_value_main.169:
#       TimingStatistics::~TimingStatistics(TimingStatistics *)
        call      _ZN16TimingStatisticsD1Ev                     #202.22
..___tag_value_main.170:
                                # LOE
..B1.196:                       # Preds ..B1.195
                                # Execution count [0.00e+00]: Infreq
        movq      (%rsp), %rdi                                  #202.22
..___tag_value_main.171:
        call      _Unwind_Resume                                #202.22
..___tag_value_main.172:
                                # LOE
..___tag_value_main.5:
..B1.197:                       # Preds ..B1.149 ..B1.148 ..B1.147 ..B1.146 ..B1.104
                                #       ..B1.103 ..B1.102 ..B1.101 ..B1.100 ..B1.99
                                #       ..B1.98 ..B1.97 ..B1.96 ..B1.95 ..B1.94
                                #       ..B1.93
                                # Execution count [0.00e+00]: Infreq
        movq      %rax, (%rsp)                                  #202.22
        jmp       ..B1.195      # Prob 100%                     #202.22
                                # LOE
..___tag_value_main.7:
..B1.198:                       # Preds ..B1.137 ..B1.135 ..B1.130 ..B1.128 ..B1.123
                                #       ..B1.121 ..B1.119 ..B1.112 ..B1.110
                                # Execution count [0.00e+00]: Infreq
        movq      %rax, (%rsp)                                  #228.5
                                # LOE
..B1.199:                       # Preds ..B1.198
                                # Execution count [0.00e+00]: Infreq
        lea       184(%rsp), %rdi                               #228.5
..___tag_value_main.173:
#       TimingStatistics::~TimingStatistics(TimingStatistics *)
        call      _ZN16TimingStatisticsD1Ev                     #228.5
..___tag_value_main.174:
                                # LOE
..B1.200:                       # Preds ..B1.199
                                # Execution count [0.00e+00]: Infreq
        lea       24(%rsp), %rdi                                #228.44
..___tag_value_main.175:
#       std::pointer_traits<std::__cxx11::basic_string<char, std::char_traits<char>, std::allocator<char>>::const_pointer>::pointer_to(std::__ptrtr_not_void<std::pointer_traits<std::__cxx11::basic_string<char, std::char_traits<char>, std::allocator<char>>::const_pointer>::element_type, std::remove_cv<std::pointer_traits<std::__cxx11::basic_string<char, std::char_traits<char>, std::allocator<char>>::const_pointer>::element_type>::type>::__type &)
        call      _ZNSt14pointer_traitsIPKcE10pointer_toERS0_   #228.44
..___tag_value_main.176:
                                # LOE rax
..B1.236:                       # Preds ..B1.200
                                # Execution count [0.00e+00]: Infreq
        movq      8(%rsp), %rdi                                 #228.44
        cmpq      %rax, %rdi                                    #228.44
        je        ..B1.195      # Prob 78%                      #228.44
                                # LOE rdi
..B1.201:                       # Preds ..B1.236
                                # Execution count [0.00e+00]: Infreq
#       operator delete(void *)
        call      _ZdlPv                                        #228.44
        jmp       ..B1.195      # Prob 100%                     #228.44
                                # LOE
..___tag_value_main.6:
..___tag_value_main.1:
..B1.204:                       # Preds ..B1.7 ..B1.105
                                # Execution count [0.00e+00]: Infreq
        movq      %rax, (%rsp)                                  #228.44
        jmp       ..B1.195      # Prob 100%                     #228.44
                                # LOE
..___tag_value_main.4:
..B1.205:                       # Preds ..B1.86 ..B1.84 ..B1.79 ..B1.77 ..B1.72
                                #       ..B1.70 ..B1.68 ..B1.61 ..B1.59
                                # Execution count [0.00e+00]: Infreq
        movq      %rax, (%rsp)                                  #208.5
                                # LOE
..B1.206:                       # Preds ..B1.205
                                # Execution count [0.00e+00]: Infreq
        lea       144(%rsp), %rdi                               #208.5
..___tag_value_main.177:
#       TimingStatistics::~TimingStatistics(TimingStatistics *)
        call      _ZN16TimingStatisticsD1Ev                     #208.5
..___tag_value_main.178:
        jmp       ..B1.195      # Prob 100%                     #208.5
                                # LOE
..___tag_value_main.3:
..B1.208:                       # Preds ..B1.47
                                # Execution count [0.00e+00]: Infreq
        movq      %rax, (%rsp)                                  #204.11
                                # LOE
..B1.209:                       # Preds ..B1.208
                                # Execution count [0.00e+00]: Infreq
        lea       104(%rsp), %rdi                               #204.11
..___tag_value_main.179:
#       TimingStatistics::~TimingStatistics(TimingStatistics *)
        call      _ZN16TimingStatisticsD1Ev                     #204.11
..___tag_value_main.180:
                                # LOE
..B1.211:                       # Preds ..B1.218 ..B1.209
                                # Execution count [0.00e+00]: Infreq
        lea       24(%rsp), %rdi                                #204.49
..___tag_value_main.181:
#       std::pointer_traits<std::__cxx11::basic_string<char, std::char_traits<char>, std::allocator<char>>::const_pointer>::pointer_to(std::__ptrtr_not_void<std::pointer_traits<std::__cxx11::basic_string<char, std::char_traits<char>, std::allocator<char>>::const_pointer>::element_type, std::remove_cv<std::pointer_traits<std::__cxx11::basic_string<char, std::char_traits<char>, std::allocator<char>>::const_pointer>::element_type>::type>::__type &)
        call      _ZNSt14pointer_traitsIPKcE10pointer_toERS0_   #204.49
..___tag_value_main.182:
                                # LOE rax
..B1.237:                       # Preds ..B1.211
                                # Execution count [0.00e+00]: Infreq
        movq      8(%rsp), %rdi                                 #204.49
        cmpq      %rax, %rdi                                    #204.49
        je        ..B1.195      # Prob 78%                      #204.49
                                # LOE rdi
..B1.212:                       # Preds ..B1.237
                                # Execution count [0.00e+00]: Infreq
#       operator delete(void *)
        call      _ZdlPv                                        #204.49
        jmp       ..B1.195      # Prob 100%                     #204.49
                                # LOE
..___tag_value_main.2:
..B1.217:                       # Preds ..B1.32 ..B1.30 ..B1.25 ..B1.23 ..B1.21
                                #       ..B1.14 ..B1.12
                                # Execution count [0.00e+00]: Infreq
        movq      %rax, (%rsp)                                  #204.11
                                # LOE
..B1.218:                       # Preds ..B1.217
                                # Execution count [0.00e+00]: Infreq
        lea       104(%rsp), %rdi                               #204.11
..___tag_value_main.183:
#       TimingStatistics::~TimingStatistics(TimingStatistics *)
        call      _ZN16TimingStatisticsD1Ev                     #204.11
..___tag_value_main.184:
        jmp       ..B1.211      # Prob 100%                     #204.11
        .align    16,0x90
	.cfi_endproc
                                # LOE
# mark_end;
	.type	main,@function
	.size	main,.-main
	.section .gcc_except_table, "a"
	.align 4
main$$LSDA:
	.byte	255
	.byte	0
	.uleb128	..___tag_value_main.189 - ..___tag_value_main.188
..___tag_value_main.188:
	.byte	1
	.uleb128	..___tag_value_main.187 - ..___tag_value_main.186
..___tag_value_main.186:
	.uleb128	..___tag_value_main.19 - ..___tag_value_main.9
	.uleb128	..___tag_value_main.30 - ..___tag_value_main.19
	.byte	0
	.byte	0
	.uleb128	..___tag_value_main.31 - ..___tag_value_main.9
	.uleb128	..___tag_value_main.34 - ..___tag_value_main.31
	.uleb128	..___tag_value_main.1 - ..___tag_value_main.9
	.byte	0
	.uleb128	..___tag_value_main.35 - ..___tag_value_main.9
	.uleb128	..___tag_value_main.50 - ..___tag_value_main.35
	.uleb128	..___tag_value_main.2 - ..___tag_value_main.9
	.byte	0
	.uleb128	..___tag_value_main.51 - ..___tag_value_main.9
	.uleb128	..___tag_value_main.52 - ..___tag_value_main.51
	.uleb128	..___tag_value_main.3 - ..___tag_value_main.9
	.byte	0
	.uleb128	..___tag_value_main.53 - ..___tag_value_main.9
	.uleb128	..___tag_value_main.54 - ..___tag_value_main.53
	.uleb128	..___tag_value_main.5 - ..___tag_value_main.9
	.byte	0
	.uleb128	..___tag_value_main.55 - ..___tag_value_main.9
	.uleb128	..___tag_value_main.74 - ..___tag_value_main.55
	.uleb128	..___tag_value_main.4 - ..___tag_value_main.9
	.byte	0
	.uleb128	..___tag_value_main.75 - ..___tag_value_main.9
	.uleb128	..___tag_value_main.98 - ..___tag_value_main.75
	.uleb128	..___tag_value_main.5 - ..___tag_value_main.9
	.byte	0
	.uleb128	..___tag_value_main.99 - ..___tag_value_main.9
	.uleb128	..___tag_value_main.102 - ..___tag_value_main.99
	.uleb128	..___tag_value_main.6 - ..___tag_value_main.9
	.byte	0
	.uleb128	..___tag_value_main.103 - ..___tag_value_main.9
	.uleb128	..___tag_value_main.122 - ..___tag_value_main.103
	.uleb128	..___tag_value_main.7 - ..___tag_value_main.9
	.byte	0
	.uleb128	..___tag_value_main.123 - ..___tag_value_main.9
	.uleb128	..___tag_value_main.132 - ..___tag_value_main.123
	.uleb128	..___tag_value_main.5 - ..___tag_value_main.9
	.byte	0
	.uleb128	..___tag_value_main.133 - ..___tag_value_main.9
	.uleb128	..___tag_value_main.152 - ..___tag_value_main.133
	.uleb128	..___tag_value_main.8 - ..___tag_value_main.9
	.byte	0
	.uleb128	..___tag_value_main.171 - ..___tag_value_main.9
	.uleb128	..___tag_value_main.172 - ..___tag_value_main.171
	.byte	0
	.byte	0
..___tag_value_main.187:
	.byte	127
	.byte	0
	.byte	1
	.byte	0
	.long	0x00000000,0x00000000
..___tag_value_main.189:
	.byte	0
	.data
# -- End  main
	.section .text._ZNSt7__cxx114listIySaIyEE6insertISt20_List_const_iteratorIyEvEESt14_List_iteratorIyES5_T_S8_, "xaG",@progbits,_ZNSt7__cxx114listIySaIyEE6insertISt20_List_const_iteratorIyEvEESt14_List_iteratorIyES5_T_S8_,comdat
..TXTST1:
# -- Begin  _ZNSt7__cxx114listIySaIyEE6insertISt20_List_const_iteratorIyEvEESt14_List_iteratorIyES5_T_S8_
	.section .text._ZNSt7__cxx114listIySaIyEE6insertISt20_List_const_iteratorIyEvEESt14_List_iteratorIyES5_T_S8_, "xaG",@progbits,_ZNSt7__cxx114listIySaIyEE6insertISt20_List_const_iteratorIyEvEESt14_List_iteratorIyES5_T_S8_,comdat
# mark_begin;
       .align    16,0x90
	.weak _ZNSt7__cxx114listIySaIyEE6insertISt20_List_const_iteratorIyEvEESt14_List_iteratorIyES5_T_S8_
# --- std::__cxx11::list<unsigned long long, std::allocator<unsigned long long>>::insert<std::__cxx11::list<unsigned long long, std::allocator<unsigned long long>>::const_iterator, void>(std::__cxx11::list<unsigned long long, std::allocator<unsigned long long>> *, std::__cxx11::list<unsigned long long, std::allocator<unsigned long long>>::const_iterator, std::__cxx11::list<unsigned long long, std::allocator<unsigned long long>>::const_iterator, std::__cxx11::list<unsigned long long, std::allocator<unsigned long long>>::const_iterator)
_ZNSt7__cxx114listIySaIyEE6insertISt20_List_const_iteratorIyEvEESt14_List_iteratorIyES5_T_S8_:
# parameter 1: %rdi
# parameter 2: %rsi
# parameter 3: %rdx
# parameter 4: %rcx
..B2.1:                         # Preds ..B2.0
                                # Execution count [1.00e+00]
	.cfi_startproc
	.cfi_personality 0x3,__gxx_personality_v0
	.cfi_lsda 0xb, _ZNSt7__cxx114listIySaIyEE6insertISt20_List_const_iteratorIyEvEESt14_List_iteratorIyES5_T_S8_$$LSDA
..___tag_value__ZNSt7__cxx114listIySaIyEE6insertISt20_List_const_iteratorIyEvEESt14_List_iteratorIyES5_T_S8_.191:
..L192:
                                                        #134.7
        pushq     %rbp                                          #134.7
	.cfi_def_cfa_offset 16
        movq      %rsp, %rbp                                    #134.7
	.cfi_def_cfa 6, 16
	.cfi_offset 6, -16
        andq      $-32, %rsp                                    #134.7
        pushq     %r15                                          #134.7
        pushq     %rbx                                          #134.7
        subq      $80, %rsp                                     #134.7
	.cfi_escape 0x10, 0x03, 0x0e, 0x38, 0x1c, 0x0d, 0xe0, 0xff, 0xff, 0xff, 0x1a, 0x0d, 0xf0, 0xff, 0xff, 0xff, 0x22
	.cfi_escape 0x10, 0x0f, 0x0e, 0x38, 0x1c, 0x0d, 0xe0, 0xff, 0xff, 0xff, 0x1a, 0x0d, 0xf8, 0xff, 0xff, 0xff, 0x22
        movq      %rdi, %rbx                                    #134.7
        movq      %rsi, 16(%rsp)                                #134.7
        vpxor     %xmm0, %xmm0, %xmm0                           #135.30
        movq      %rdx, (%rsp)                                  #134.7
        movq      %rcx, 24(%rsp)                                #134.7
        vmovups   %xmm0, 32(%rsp)                               #135.30
                                # LOE rbx r12 r13 r14 r15 xmm0
..B2.2:                         # Preds ..B2.1
                                # Execution count [1.00e+00]
        movq      (%rsp), %rdx                                  #135.13
        lea       32(%rsp), %rsi                                #135.30
        movq      %rsi, (%rsi)                                  #135.7
        xorl      %eax, %eax                                    #135.30
        movq      %rsi, 8(%rsi)                                 #135.7
        cmpq      -8(%rsi), %rdx                                #135.30
        je        ..B2.13       # Prob 10%                      #135.30
                                # LOE rax rdx rbx rsi r12 r13 r14 r15 xmm0
..B2.3:                         # Preds ..B2.2
                                # Execution count [9.00e-01]
        movq      $0, 48(%rsp)                                  #135.7
        lea       32(%rsp), %r15                                #135.7
        movq      %r14, 8(%rsp)                                 #135.7[spill]
	.cfi_escape 0x10, 0x0e, 0x0e, 0x38, 0x1c, 0x0d, 0xe0, 0xff, 0xff, 0xff, 0x1a, 0x0d, 0xa8, 0xff, 0xff, 0xff, 0x22
        movq      %rdx, %r14                                    #135.7
        jmp       ..B2.4        # Prob 100%                     #135.7
                                # LOE rbx r12 r13 r14 r15
..B2.11:                        # Preds ..B2.10
                                # Execution count [4.10e+00]
        movq      %rax, 48(%rsp)                                #135.7
                                # LOE rbx r12 r13 r14 r15
..B2.4:                         # Preds ..B2.11 ..B2.3
                                # Execution count [5.00e+00]
        movl      $24, %edi                                     #135.30
..___tag_value__ZNSt7__cxx114listIySaIyEE6insertISt20_List_const_iteratorIyEvEESt14_List_iteratorIyES5_T_S8_.199:
#       operator new(std::size_t)
        call      _Znwm                                         #135.30
..___tag_value__ZNSt7__cxx114listIySaIyEE6insertISt20_List_const_iteratorIyEvEESt14_List_iteratorIyES5_T_S8_.200:
                                # LOE rax rbx r12 r13 r14 r15
..B2.5:                         # Preds ..B2.4
                                # Execution count [5.00e+00]
        movq      %rax, %rdi                                    #135.30
                                # LOE rbx rdi r12 r13 r14 r15
..B2.6:                         # Preds ..B2.5
                                # Execution count [5.00e+00]
        testq     %rdi, %rdi                                    #135.30
        je        ..B2.9        # Prob 32%                      #135.30
                                # LOE rbx rdi r12 r13 r14 r15
..B2.7:                         # Preds ..B2.6
                                # Execution count [3.37e+00]
        vpxor     %xmm0, %xmm0, %xmm0                           #135.30
        vmovups   %xmm0, (%rdi)                                 #135.30
                                # LOE rbx rdi r12 r13 r14 r15
..B2.8:                         # Preds ..B2.7
                                # Execution count [3.37e+00]
        movq      16(%r14), %rax                                #135.30
        movq      %rax, 16(%rdi)                                #135.30
                                # LOE rbx rdi r12 r13 r14 r15
..B2.9:                         # Preds ..B2.6 ..B2.8
                                # Execution count [5.00e+00]
        movq      %r15, %rsi                                    #135.30
#       std::__detail::_List_node_base::_M_hook(std::__detail::_List_node_base *, std::__detail::_List_node_base *)
        call      _ZNSt8__detail15_List_node_base7_M_hookEPS0_  #135.30
                                # LOE rbx r12 r13 r14 r15
..B2.10:                        # Preds ..B2.9
                                # Execution count [5.00e+00]
        movq      (%r14), %r14                                  #135.30
        movq      48(%rsp), %rax                                #135.7
        incq      %rax                                          #135.30
        cmpq      24(%rsp), %r14                                #135.30
        jne       ..B2.11       # Prob 82%                      #135.30
                                # LOE rax rbx r12 r13 r14 r15
..B2.12:                        # Preds ..B2.10
                                # Execution count [9.00e-01]: Infreq
        movq      8(%rsp), %r14                                 #[spill]
	.cfi_restore 14
        movq      32(%rsp), %rsi                                #136.7
                                # LOE rax rbx rsi r12 r13 r14 r15
..B2.13:                        # Preds ..B2.12 ..B2.2
                                # Execution count [1.00e+00]: Infreq
        lea       32(%rsp), %rdx                                #136.13
        cmpq      %rdx, %rsi                                    #136.13
        je        ..B2.21       # Prob 50%                      #136.13
                                # LOE rax rbx rsi r12 r13 r14 r15
..B2.14:                        # Preds ..B2.13
                                # Execution count [5.00e-01]: Infreq
        movq      %rsi, (%rsp)                                  #138.22
        lea       32(%rsp), %rdx                                #139.6
        cmpq      %rdx, %rsi                                    #139.6
        jne       ..B2.27       # Prob 11%                      #139.6
                                # LOE rax rbx rsi r12 r13 r14 r15
..B2.15:                        # Preds ..B2.28 ..B2.14
                                # Execution count [5.00e-01]: Infreq
        lea       32(%rsp), %rdx                                #140.6
        cmpq      %rdx, %rsi                                    #140.6
        je        ..B2.20       # Prob 10%                      #140.6
                                # LOE rax rsi r12 r13 r14 r15
..B2.16:                        # Preds ..B2.15
                                # Execution count [4.50e-01]: Infreq
        movq      %rax, 48(%rsp)                                #135.7
        movq      %rsi, %rbx                                    #135.7
        lea       32(%rsp), %r15                                #135.7
                                # LOE rbx r12 r13 r14 r15
..B2.17:                        # Preds ..B2.18 ..B2.16
                                # Execution count [2.50e+00]: Infreq
        movq      %rbx, %rdi                                    #140.6
        movq      (%rbx), %rbx                                  #140.6
#       operator delete(void *)
        call      _ZdlPv                                        #140.6
                                # LOE rbx r12 r13 r14 r15
..B2.18:                        # Preds ..B2.17
                                # Execution count [2.50e+00]: Infreq
        cmpq      %r15, %rbx                                    #140.6
        jne       ..B2.17       # Prob 82%                      #140.6
                                # LOE rbx r12 r13 r14 r15
..B2.20:                        # Preds ..B2.18 ..B2.15
                                # Execution count [5.00e-01]: Infreq
        movq      (%rsp), %rax                                  #140.6
        addq      $80, %rsp                                     #140.6
	.cfi_restore 3
        popq      %rbx                                          #140.6
	.cfi_restore 15
        popq      %r15                                          #140.6
        movq      %rbp, %rsp                                    #140.6
        popq      %rbp                                          #140.6
	.cfi_def_cfa 7, 8
	.cfi_restore 6
        ret                                                     #140.6
	.cfi_def_cfa 6, 16
	.cfi_escape 0x10, 0x03, 0x0e, 0x38, 0x1c, 0x0d, 0xe0, 0xff, 0xff, 0xff, 0x1a, 0x0d, 0xf0, 0xff, 0xff, 0xff, 0x22
	.cfi_offset 6, -16
	.cfi_escape 0x10, 0x0f, 0x0e, 0x38, 0x1c, 0x0d, 0xe0, 0xff, 0xff, 0xff, 0x1a, 0x0d, 0xf8, 0xff, 0xff, 0xff, 0x22
                                # LOE
..B2.21:                        # Preds ..B2.13
                                # Execution count [5.00e-01]: Infreq
        movq      16(%rsp), %rdx                                #142.9
        lea       32(%rsp), %rcx                                #142.2
        movq      %rdx, (%rsp)                                  #142.9
        cmpq      %rcx, %rsi                                    #142.2
        je        ..B2.26       # Prob 10%                      #142.2
                                # LOE rax rsi r12 r13 r14 r15
..B2.22:                        # Preds ..B2.21
                                # Execution count [4.50e-01]: Infreq
        movq      %rax, 48(%rsp)                                #135.7
        movq      %rsi, %rbx                                    #135.7
        lea       32(%rsp), %r15                                #135.7
                                # LOE rbx r12 r13 r14 r15
..B2.23:                        # Preds ..B2.24 ..B2.22
                                # Execution count [2.50e+00]: Infreq
        movq      %rbx, %rdi                                    #142.2
        movq      (%rbx), %rbx                                  #142.2
#       operator delete(void *)
        call      _ZdlPv                                        #142.2
                                # LOE rbx r12 r13 r14 r15
..B2.24:                        # Preds ..B2.23
                                # Execution count [2.50e+00]: Infreq
        cmpq      %r15, %rbx                                    #142.2
        jne       ..B2.23       # Prob 82%                      #142.2
                                # LOE rbx r12 r13 r14 r15
..B2.26:                        # Preds ..B2.24 ..B2.21
                                # Execution count [5.00e-01]: Infreq
        movq      (%rsp), %rax                                  #142.2
        addq      $80, %rsp                                     #142.2
	.cfi_restore 3
        popq      %rbx                                          #142.2
	.cfi_restore 15
        popq      %r15                                          #142.2
        movq      %rbp, %rsp                                    #142.2
        popq      %rbp                                          #142.2
	.cfi_def_cfa 7, 8
	.cfi_restore 6
        ret                                                     #142.2
	.cfi_def_cfa 6, 16
	.cfi_escape 0x10, 0x03, 0x0e, 0x38, 0x1c, 0x0d, 0xe0, 0xff, 0xff, 0xff, 0x1a, 0x0d, 0xf0, 0xff, 0xff, 0xff, 0x22
	.cfi_offset 6, -16
	.cfi_escape 0x10, 0x0f, 0x0e, 0x38, 0x1c, 0x0d, 0xe0, 0xff, 0xff, 0xff, 0x1a, 0x0d, 0xf8, 0xff, 0xff, 0xff, 0x22
                                # LOE
..B2.27:                        # Preds ..B2.14
                                # Execution count [5.96e-02]: Infreq
        movq      16(%rsp), %rdi                                #139.6
        lea       32(%rsp), %rdx                                #139.6
        movq      %rax, 16(%rdx)                                #135.7
..___tag_value__ZNSt7__cxx114listIySaIyEE6insertISt20_List_const_iteratorIyEvEESt14_List_iteratorIyES5_T_S8_.218:
#       std::__detail::_List_node_base::_M_transfer(std::__detail::_List_node_base *, std::__detail::_List_node_base *, std::__detail::_List_node_base *)
        call      _ZNSt8__detail15_List_node_base11_M_transferEPS0_S1_ #139.6
..___tag_value__ZNSt7__cxx114listIySaIyEE6insertISt20_List_const_iteratorIyEvEESt14_List_iteratorIyES5_T_S8_.219:
                                # LOE rbx r12 r13 r14 r15
..B2.28:                        # Preds ..B2.27
                                # Execution count [5.96e-02]: Infreq
        movq      48(%rsp), %rax                                #139.25
        movq      32(%rsp), %rsi                                #140.6
        addq      %rax, 16(%rbx)                                #139.6
        xorl      %eax, %eax                                    #139.6
        jmp       ..B2.15       # Prob 100%                     #139.6
	.cfi_escape 0x10, 0x0e, 0x0e, 0x38, 0x1c, 0x0d, 0xe0, 0xff, 0xff, 0xff, 0x1a, 0x0d, 0xa8, 0xff, 0xff, 0xff, 0x22
                                # LOE rax rsi r12 r13 r14 r15
..___tag_value__ZNSt7__cxx114listIySaIyEE6insertISt20_List_const_iteratorIyEvEESt14_List_iteratorIyES5_T_S8_.190:
..B2.29:                        # Preds ..B2.4
                                # Execution count [0.00e+00]: Infreq
        movq      %rax, (%rsp)                                  #135.30
        movq      8(%rsp), %r14                                 #135.30[spill]
	.cfi_restore 14
	.cfi_escape 0x10, 0x0e, 0x0e, 0x38, 0x1c, 0x0d, 0xe0, 0xff, 0xff, 0xff, 0x1a, 0x0d, 0xa8, 0xff, 0xff, 0xff, 0x22
                                # LOE r12 r13 r14 r15
..B2.30:                        # Preds ..B2.29
                                # Execution count [0.00e+00]: Infreq
        lea       32(%rsp), %rdi                                #135.30
..___tag_value__ZNSt7__cxx114listIySaIyEE6insertISt20_List_const_iteratorIyEvEESt14_List_iteratorIyES5_T_S8_.223:
#       std::__cxx11::_List_base<unsigned long long, std::allocator<unsigned long long>>::~_List_base(std::__cxx11::_List_base<unsigned long long, std::allocator<unsigned long long>> *const)
        call      _ZNSt7__cxx1110_List_baseIySaIyEED2Ev         #135.30
..___tag_value__ZNSt7__cxx114listIySaIyEE6insertISt20_List_const_iteratorIyEvEESt14_List_iteratorIyES5_T_S8_.224:
                                # LOE r12 r13 r14 r15
..B2.31:                        # Preds ..B2.30
                                # Execution count [0.00e+00]: Infreq
        movq      (%rsp), %rdi                                  #135.30
..___tag_value__ZNSt7__cxx114listIySaIyEE6insertISt20_List_const_iteratorIyEvEESt14_List_iteratorIyES5_T_S8_.225:
        call      _Unwind_Resume                                #135.30
..___tag_value__ZNSt7__cxx114listIySaIyEE6insertISt20_List_const_iteratorIyEvEESt14_List_iteratorIyES5_T_S8_.226:
        .align    16,0x90
	.cfi_endproc
                                # LOE
# mark_end;
	.type	_ZNSt7__cxx114listIySaIyEE6insertISt20_List_const_iteratorIyEvEESt14_List_iteratorIyES5_T_S8_,@function
	.size	_ZNSt7__cxx114listIySaIyEE6insertISt20_List_const_iteratorIyEvEESt14_List_iteratorIyES5_T_S8_,.-_ZNSt7__cxx114listIySaIyEE6insertISt20_List_const_iteratorIyEvEESt14_List_iteratorIyES5_T_S8_
	.section .gcc_except_table, "a"
	.align 4
_ZNSt7__cxx114listIySaIyEE6insertISt20_List_const_iteratorIyEvEESt14_List_iteratorIyES5_T_S8_$$LSDA:
	.byte	255
	.byte	0
	.uleb128	..___tag_value__ZNSt7__cxx114listIySaIyEE6insertISt20_List_const_iteratorIyEvEESt14_List_iteratorIyES5_T_S8_.231 - ..___tag_value__ZNSt7__cxx114listIySaIyEE6insertISt20_List_const_iteratorIyEvEESt14_List_iteratorIyES5_T_S8_.230
..___tag_value__ZNSt7__cxx114listIySaIyEE6insertISt20_List_const_iteratorIyEvEESt14_List_iteratorIyES5_T_S8_.230:
	.byte	1
	.uleb128	..___tag_value__ZNSt7__cxx114listIySaIyEE6insertISt20_List_const_iteratorIyEvEESt14_List_iteratorIyES5_T_S8_.229 - ..___tag_value__ZNSt7__cxx114listIySaIyEE6insertISt20_List_const_iteratorIyEvEESt14_List_iteratorIyES5_T_S8_.228
..___tag_value__ZNSt7__cxx114listIySaIyEE6insertISt20_List_const_iteratorIyEvEESt14_List_iteratorIyES5_T_S8_.228:
	.uleb128	..___tag_value__ZNSt7__cxx114listIySaIyEE6insertISt20_List_const_iteratorIyEvEESt14_List_iteratorIyES5_T_S8_.199 - ..___tag_value__ZNSt7__cxx114listIySaIyEE6insertISt20_List_const_iteratorIyEvEESt14_List_iteratorIyES5_T_S8_.191
	.uleb128	..___tag_value__ZNSt7__cxx114listIySaIyEE6insertISt20_List_const_iteratorIyEvEESt14_List_iteratorIyES5_T_S8_.200 - ..___tag_value__ZNSt7__cxx114listIySaIyEE6insertISt20_List_const_iteratorIyEvEESt14_List_iteratorIyES5_T_S8_.199
	.uleb128	..___tag_value__ZNSt7__cxx114listIySaIyEE6insertISt20_List_const_iteratorIyEvEESt14_List_iteratorIyES5_T_S8_.190 - ..___tag_value__ZNSt7__cxx114listIySaIyEE6insertISt20_List_const_iteratorIyEvEESt14_List_iteratorIyES5_T_S8_.191
	.byte	0
	.uleb128	..___tag_value__ZNSt7__cxx114listIySaIyEE6insertISt20_List_const_iteratorIyEvEESt14_List_iteratorIyES5_T_S8_.218 - ..___tag_value__ZNSt7__cxx114listIySaIyEE6insertISt20_List_const_iteratorIyEvEESt14_List_iteratorIyES5_T_S8_.191
	.uleb128	..___tag_value__ZNSt7__cxx114listIySaIyEE6insertISt20_List_const_iteratorIyEvEESt14_List_iteratorIyES5_T_S8_.219 - ..___tag_value__ZNSt7__cxx114listIySaIyEE6insertISt20_List_const_iteratorIyEvEESt14_List_iteratorIyES5_T_S8_.218
	.byte	0
	.byte	0
	.uleb128	..___tag_value__ZNSt7__cxx114listIySaIyEE6insertISt20_List_const_iteratorIyEvEESt14_List_iteratorIyES5_T_S8_.225 - ..___tag_value__ZNSt7__cxx114listIySaIyEE6insertISt20_List_const_iteratorIyEvEESt14_List_iteratorIyES5_T_S8_.191
	.uleb128	..___tag_value__ZNSt7__cxx114listIySaIyEE6insertISt20_List_const_iteratorIyEvEESt14_List_iteratorIyES5_T_S8_.226 - ..___tag_value__ZNSt7__cxx114listIySaIyEE6insertISt20_List_const_iteratorIyEvEESt14_List_iteratorIyES5_T_S8_.225
	.byte	0
	.byte	0
..___tag_value__ZNSt7__cxx114listIySaIyEE6insertISt20_List_const_iteratorIyEvEESt14_List_iteratorIyES5_T_S8_.229:
	.byte	127
	.byte	0
	.byte	1
	.byte	0
	.long	0x00000000,0x00000000
..___tag_value__ZNSt7__cxx114listIySaIyEE6insertISt20_List_const_iteratorIyEvEESt14_List_iteratorIyES5_T_S8_.231:
	.byte	0
	.data
# -- End  _ZNSt7__cxx114listIySaIyEE6insertISt20_List_const_iteratorIyEvEESt14_List_iteratorIyES5_T_S8_
	.section .text._ZNSt7__cxx1110_List_baseIySaIyEED2Ev, "xaG",@progbits,_ZNSt7__cxx1110_List_baseIySaIyEED2Ev,comdat
..TXTST2:
# -- Begin  _ZNSt7__cxx1110_List_baseIySaIyEED2Ev
	.section .text._ZNSt7__cxx1110_List_baseIySaIyEED2Ev, "xaG",@progbits,_ZNSt7__cxx1110_List_baseIySaIyEED2Ev,comdat
# mark_begin;
       .align    16,0x90
	.weak _ZNSt7__cxx1110_List_baseIySaIyEED2Ev
# --- std::__cxx11::_List_base<unsigned long long, std::allocator<unsigned long long>>::~_List_base(std::__cxx11::_List_base<unsigned long long, std::allocator<unsigned long long>> *const)
_ZNSt7__cxx1110_List_baseIySaIyEED2Ev:
# parameter 1: %rdi
..B3.1:                         # Preds ..B3.0
                                # Execution count [1.00e+00]
	.cfi_startproc
	.cfi_personality 0x3,__gxx_personality_v0
..___tag_value__ZNSt7__cxx1110_List_baseIySaIyEED2Ev.232:
..L233:
                                                        #445.7
        subq      $24, %rsp                                     #445.7
	.cfi_def_cfa_offset 32
        movq      (%rdi), %rax                                  #445.7
        cmpq      %rdi, %rax                                    #445.7
        je        ..B3.6        # Prob 10%                      #445.7
                                # LOE rax rbx rbp rdi r12 r13 r14 r15
..B3.2:                         # Preds ..B3.1
                                # Execution count [8.99e-01]
        movq      %r12, 8(%rsp)                                 #[spill]
	.cfi_offset 12, -24
        movq      %rax, %r12                                    #
        movq      %r13, (%rsp)                                  #[spill]
	.cfi_offset 13, -32
        movq      %rdi, %r13                                    #
                                # LOE rbx rbp r12 r13 r14 r15
..B3.3:                         # Preds ..B3.4 ..B3.2
                                # Execution count [5.00e+00]
        movq      %r12, %rdi                                    #445.7
        movq      (%r12), %r12                                  #445.7
#       operator delete(void *)
        call      _ZdlPv                                        #445.7
                                # LOE rbx rbp r12 r13 r14 r15
..B3.4:                         # Preds ..B3.3
                                # Execution count [5.00e+00]
        cmpq      %r13, %r12                                    #445.7
        jne       ..B3.3        # Prob 82%                      #445.7
                                # LOE rbx rbp r12 r13 r14 r15
..B3.5:                         # Preds ..B3.4
                                # Execution count [8.99e-01]
        movq      8(%rsp), %r12                                 #[spill]
	.cfi_restore 12
        movq      (%rsp), %r13                                  #[spill]
	.cfi_restore 13
                                # LOE rbx rbp r12 r13 r14 r15
..B3.6:                         # Preds ..B3.5 ..B3.1
                                # Execution count [1.00e+00]
        addq      $24, %rsp                                     #445.7
	.cfi_def_cfa_offset 8
        ret                                                     #445.7
        .align    16,0x90
	.cfi_endproc
                                # LOE
# mark_end;
	.type	_ZNSt7__cxx1110_List_baseIySaIyEED2Ev,@function
	.size	_ZNSt7__cxx1110_List_baseIySaIyEED2Ev,.-_ZNSt7__cxx1110_List_baseIySaIyEED2Ev
	.data
# -- End  _ZNSt7__cxx1110_List_baseIySaIyEED2Ev
	.section .text._Z13benchmarkSIMDIfLj1EEvPciR16TimingStatistics, "xaG",@progbits,_Z13benchmarkSIMDIfLj1EEvPciR16TimingStatistics,comdat
..TXTST3:
# -- Begin  _Z13benchmarkSIMDIfLj1EEvPciR16TimingStatistics
	.section .text._Z13benchmarkSIMDIfLj1EEvPciR16TimingStatistics, "xaG",@progbits,_Z13benchmarkSIMDIfLj1EEvPciR16TimingStatistics,comdat
# mark_begin;
       .align    16,0x90
	.weak _Z13benchmarkSIMDIfLj1EEvPciR16TimingStatistics
# --- benchmarkSIMD<float, 1U>(char *, int, TimingStatistics &)
_Z13benchmarkSIMDIfLj1EEvPciR16TimingStatistics:
# parameter 1: %rdi
# parameter 2: %esi
# parameter 3: %rdx
..B4.1:                         # Preds ..B4.0
                                # Execution count [1.00e+00]
	.cfi_startproc
	.cfi_personality 0x3,__gxx_personality_v0
	.cfi_lsda 0xb, _Z13benchmarkSIMDIfLj1EEvPciR16TimingStatistics$$LSDA
..___tag_value__Z13benchmarkSIMDIfLj1EEvPciR16TimingStatistics.242:
..L243:
                                                        #122.1
        pushq     %r12                                          #122.1
	.cfi_def_cfa_offset 16
	.cfi_offset 12, -16
        pushq     %r13                                          #122.1
	.cfi_def_cfa_offset 24
	.cfi_offset 13, -24
        pushq     %r14                                          #122.1
	.cfi_def_cfa_offset 32
	.cfi_offset 14, -32
        pushq     %r15                                          #122.1
	.cfi_def_cfa_offset 40
	.cfi_offset 15, -40
        pushq     %rbx                                          #122.1
	.cfi_def_cfa_offset 48
	.cfi_offset 3, -48
        subq      $48, %rsp                                     #122.1
	.cfi_def_cfa_offset 96
        movq      %rdi, %r15                                    #122.1
        movq      %rdx, %rbx                                    #122.1
        lea       8(%rsp), %rdi                                 #123.22
        movl      %esi, %r14d                                   #122.1
..___tag_value__Z13benchmarkSIMDIfLj1EEvPciR16TimingStatistics.255:
#       std::__cxx11::list<unsigned long long, std::allocator<unsigned long long>>::list(std::__cxx11::list<unsigned long long, std::allocator<unsigned long long>> *)
        call      _ZNSt7__cxx114listIySaIyEEC1Ev                #123.22
..___tag_value__Z13benchmarkSIMDIfLj1EEvPciR16TimingStatistics.256:
                                # LOE rbx rbp r15 r14d
..B4.2:                         # Preds ..B4.1
                                # Execution count [1.00e+00]
        movl      $0, 40(%rsp)                                  #123.22
        xorl      %r12d, %r12d                                  #125.16
        vxorps    %xmm0, %xmm0, %xmm0                           #123.22
        vmovss    %xmm0, (%rsp)                                 #123.22[spill]
        vmovss    %xmm0, 32(%rsp)                               #123.22
        vmovss    %xmm0, 36(%rsp)                               #123.22
        testl     %r14d, %r14d                                  #125.25
        jle       ..B4.13       # Prob 3%                       #125.25
                                # LOE rbx rbp r15 r12d r14d
..B4.4:                         # Preds ..B4.2 ..B4.44
                                # Execution count [5.39e+00]
..___tag_value__Z13benchmarkSIMDIfLj1EEvPciR16TimingStatistics.257:
#       run_SIMD<float, 1U>()
        call      _Z8run_SIMDIfLj1EEyv                          #127.22
..___tag_value__Z13benchmarkSIMDIfLj1EEvPciR16TimingStatistics.258:
                                # LOE rax rbx rbp r15 r12d r14d
..B4.5:                         # Preds ..B4.4
                                # Execution count [5.39e+00]
        movq      %rax, %r13                                    #127.22
                                # LOE rbx rbp r13 r15 r12d r14d
..B4.6:                         # Preds ..B4.5
                                # Execution count [5.39e+00]
        movl      $24, %edi                                     #127.15
..___tag_value__Z13benchmarkSIMDIfLj1EEvPciR16TimingStatistics.259:
#       operator new(std::size_t)
        call      _Znwm                                         #127.15
..___tag_value__Z13benchmarkSIMDIfLj1EEvPciR16TimingStatistics.260:
                                # LOE rax rbx rbp r13 r15 r12d r14d
..B4.8:                         # Preds ..B4.6
                                # Execution count [5.39e+00]
        testq     %rax, %rax                                    #127.15
        je        ..B4.11       # Prob 32%                      #127.15
                                # LOE rax rbx rbp r13 r15 r12d r14d
..B4.9:                         # Preds ..B4.8
                                # Execution count [3.63e+00]
        vpxor     %xmm0, %xmm0, %xmm0                           #127.15
        vmovups   %xmm0, (%rax)                                 #127.15
                                # LOE rax rbx rbp r13 r15 r12d r14d
..B4.10:                        # Preds ..B4.9
                                # Execution count [3.63e+00]
        movq      %r13, 16(%rax)                                #127.15
                                # LOE rax rbx rbp r13 r15 r12d r14d
..B4.11:                        # Preds ..B4.8 ..B4.10
                                # Execution count [5.39e+00]
        movq      %rax, %rdi                                    #127.15
        lea       8(%rsp), %rsi                                 #127.15
#       std::__detail::_List_node_base::_M_hook(std::__detail::_List_node_base *, std::__detail::_List_node_base *)
        call      _ZNSt8__detail15_List_node_base7_M_hookEPS0_  #127.15
                                # LOE rbx rbp r13 r15 r12d r14d
..B4.12:                        # Preds ..B4.11
                                # Execution count [5.39e+00]
        vxorps    %xmm4, %xmm4, %xmm4                           #127.15
        incq      24(%rsp)                                      #127.15
        vmovss    32(%rsp), %xmm2                               #127.9
        vcvtsi2ssq %r13, %xmm4, %xmm4                           #127.15
        testq     %r13, %r13                                    #127.15
        jge       ..B4.44       # Prob 70%                      #127.15
                                # LOE rbx rbp r13 r15 r12d r14d xmm2 xmm4
..B4.45:                        # Preds ..B4.12
                                # Execution count [1.62e+00]
        movq      %r13, %rax                                    #127.15
        vxorps    %xmm0, %xmm0, %xmm0                           #127.15
        shrq      $1, %r13                                      #127.15
        andq      $1, %rax                                      #127.15
        orq       %r13, %rax                                    #127.15
        vcvtsi2ssq %rax, %xmm0, %xmm0                           #127.15
        vaddss    %xmm0, %xmm0, %xmm4                           #127.15
                                # LOE rbx rbp r15 r12d r14d xmm2 xmm4
..B4.44:                        # Preds ..B4.45 ..B4.12
                                # Execution count [5.39e+00]
        vxorps    %xmm0, %xmm0, %xmm0                           #127.15
        incl      %r12d                                         #125.37
        movl      40(%rsp), %eax                                #127.9
        vsubss    %xmm2, %xmm4, %xmm5                           #127.15
        vcvtsi2ss %eax, %xmm0, %xmm0                            #127.15
        incl      %eax                                          #127.15
        vaddss    .L_2il0floatpacket.29(%rip), %xmm0, %xmm1     #127.15
        vdivss    %xmm1, %xmm5, %xmm3                           #127.15
        movl      %eax, 40(%rsp)                                #127.9
        vaddss    %xmm3, %xmm2, %xmm2                           #127.15
        vmovss    %xmm2, 32(%rsp)                               #127.9
        vsubss    %xmm2, %xmm4, %xmm4                           #127.15
        vfmadd213ss 36(%rsp), %xmm4, %xmm5                      #127.15
        vmovss    %xmm5, 36(%rsp)                               #127.9
        cmpl      %r14d, %r12d                                  #125.25
        jl        ..B4.4        # Prob 82%                      #125.25
                                # LOE rbx rbp r15 r12d r14d
..B4.13:                        # Preds ..B4.2 ..B4.44
                                # Execution count [1.00e+00]
        movl      $_ZSt4cout, %edi                              #130.15
        movq      %r15, %rsi                                    #130.15
..___tag_value__Z13benchmarkSIMDIfLj1EEvPciR16TimingStatistics.261:
#       std::operator<<<std::char_traits<char>>(std::basic_ostream<char, std::char_traits<char>> &, const char *)
        call      _ZStlsISt11char_traitsIcEERSt13basic_ostreamIcT_ES5_PKc #130.15
..___tag_value__Z13benchmarkSIMDIfLj1EEvPciR16TimingStatistics.262:
                                # LOE rax rbx rbp
..B4.14:                        # Preds ..B4.13
                                # Execution count [1.00e+00]
        movq      %rax, %rdi                                    #130.15
                                # LOE rbx rbp rdi
..B4.15:                        # Preds ..B4.14
                                # Execution count [1.00e+00]
        vmovss    32(%rsp), %xmm2                               #130.31
        movq      $0x8000000000000000, %r12                     #130.31
        vmovss    .L_2il0floatpacket.28(%rip), %xmm1            #130.31
        vcomiss   %xmm1, %xmm2                                  #130.31
        vsubss    %xmm1, %xmm2, %xmm3                           #130.31
        vcmpgess  %xmm1, %xmm2, %xmm0                           #130.31
        jae       ..L263        # Prob 50%                      #130.31
        vmovaps   %xmm2, %xmm3                                  #130.31
..L263:                                                         #
        vcvttss2si %xmm3, %rsi                                  #130.31
        vmovd     %xmm0, %eax                                   #130.31
        movslq    %eax, %rax                                    #130.31
        andq      %r12, %rax                                    #130.31
        addq      %rax, %rsi                                    #130.31
..___tag_value__Z13benchmarkSIMDIfLj1EEvPciR16TimingStatistics.264:
#       std::basic_ostream<char, std::char_traits<char>>::operator<<(std::basic_ostream<char, std::char_traits<char>> *, unsigned long long)
        call      _ZNSolsEy                                     #130.31
..___tag_value__Z13benchmarkSIMDIfLj1EEvPciR16TimingStatistics.265:
                                # LOE rax rbx rbp r12
..B4.17:                        # Preds ..B4.15
                                # Execution count [1.00e+00]
        movq      %rax, %rdi                                    #131.9
        movl      $.L_2__STRING.0, %esi                         #131.9
..___tag_value__Z13benchmarkSIMDIfLj1EEvPciR16TimingStatistics.266:
#       std::operator<<<std::char_traits<char>>(std::basic_ostream<char, std::char_traits<char>> &, const char *)
        call      _ZStlsISt11char_traitsIcEERSt13basic_ostreamIcT_ES5_PKc #131.9
..___tag_value__Z13benchmarkSIMDIfLj1EEvPciR16TimingStatistics.267:
                                # LOE rax rbx rbp r12
..B4.18:                        # Preds ..B4.17
                                # Execution count [1.00e+00]
        movq      %rax, %rdi                                    #131.9
                                # LOE rbx rbp rdi r12
..B4.19:                        # Preds ..B4.18
                                # Execution count [1.00e+00]
        movl      40(%rsp), %eax                                #131.46
        testl     %eax, %eax                                    #131.52
        jle       ..B4.21       # Prob 16%                      #131.52
                                # LOE rbx rbp rdi r12 eax
..B4.20:                        # Preds ..B4.19
                                # Execution count [8.40e-01]
        vmovss    36(%rsp), %xmm0                               #131.52
        vxorps    %xmm1, %xmm1, %xmm1                           #131.52
        vsqrtss   %xmm0, %xmm0, %xmm0                           #131.52
        vcvtsi2ss %eax, %xmm1, %xmm1                            #131.52
        vdivss    %xmm1, %xmm0, %xmm3                           #131.52
        jmp       ..B4.22       # Prob 100%                     #131.52
                                # LOE rbx rbp rdi r12 xmm3
..B4.21:                        # Preds ..B4.19
                                # Execution count [1.60e-01]
        vmovss    (%rsp), %xmm3                                 #131.52[spill]
                                # LOE rbx rbp rdi r12 xmm3
..B4.22:                        # Preds ..B4.20 ..B4.21
                                # Execution count [1.00e+00]
        vmovss    .L_2il0floatpacket.28(%rip), %xmm1            #131.22
        vcomiss   %xmm1, %xmm3                                  #131.22
        vsubss    %xmm1, %xmm3, %xmm2                           #131.22
        vcmpgess  %xmm1, %xmm3, %xmm0                           #131.22
        jae       ..L268        # Prob 50%                      #131.22
        vmovaps   %xmm3, %xmm2                                  #131.22
..L268:                                                         #
        vcvttss2si %xmm2, %rsi                                  #131.22
        vmovd     %xmm0, %eax                                   #131.22
        movslq    %eax, %rax                                    #131.22
        andq      %r12, %rax                                    #131.22
        addq      %rax, %rsi                                    #131.22
..___tag_value__Z13benchmarkSIMDIfLj1EEvPciR16TimingStatistics.269:
#       std::basic_ostream<char, std::char_traits<char>>::operator<<(std::basic_ostream<char, std::char_traits<char>> *, unsigned long long)
        call      _ZNSolsEy                                     #131.22
..___tag_value__Z13benchmarkSIMDIfLj1EEvPciR16TimingStatistics.270:
                                # LOE rax rbx rbp
..B4.24:                        # Preds ..B4.22
                                # Execution count [1.00e+00]
        movq      %rax, %rdi                                    #132.9
        movl      $.L_2__STRING.1, %esi                         #132.9
..___tag_value__Z13benchmarkSIMDIfLj1EEvPciR16TimingStatistics.271:
#       std::operator<<<std::char_traits<char>>(std::basic_ostream<char, std::char_traits<char>> &, const char *)
        call      _ZStlsISt11char_traitsIcEERSt13basic_ostreamIcT_ES5_PKc #132.9
..___tag_value__Z13benchmarkSIMDIfLj1EEvPciR16TimingStatistics.272:
                                # LOE rax rbx rbp
..B4.26:                        # Preds ..B4.24
                                # Execution count [1.00e+00]
        vmovss    32(%rsp), %xmm1                               #132.29
        vcomiss   (%rsp), %xmm1                                 #132.35[spill]
        jbe       ..B4.29       # Prob 78%                      #132.35
                                # LOE rax rbx rbp xmm1
..B4.28:                        # Preds ..B4.26
                                # Execution count [2.20e-01]
        vmovss    24(%rbx), %xmm0                               #132.35
        vdivss    %xmm1, %xmm0, %xmm1                           #132.35
        vmovss    %xmm1, (%rsp)                                 #132.35[spill]
                                # LOE rax rbp
..B4.29:                        # Preds ..B4.26 ..B4.28
                                # Execution count [1.00e+00]
        vmovss    (%rsp), %xmm0                                 #132.26[spill]
        movq      %rax, %rdi                                    #132.26
..___tag_value__Z13benchmarkSIMDIfLj1EEvPciR16TimingStatistics.273:
#       std::basic_ostream<char, std::char_traits<char>>::operator<<(std::basic_ostream<char, std::char_traits<char>> *, float)
        call      _ZNSolsEf                                     #132.26
..___tag_value__Z13benchmarkSIMDIfLj1EEvPciR16TimingStatistics.274:
                                # LOE rax rbp
..B4.31:                        # Preds ..B4.29
                                # Execution count [1.00e+00]
        movq      %rax, %rdi                                    #132.63
        movl      $.L_2__STRING.2, %esi                         #132.63
..___tag_value__Z13benchmarkSIMDIfLj1EEvPciR16TimingStatistics.275:
#       std::operator<<<std::char_traits<char>>(std::basic_ostream<char, std::char_traits<char>> &, const char *)
        call      _ZStlsISt11char_traitsIcEERSt13basic_ostreamIcT_ES5_PKc #132.63
..___tag_value__Z13benchmarkSIMDIfLj1EEvPciR16TimingStatistics.276:
                                # LOE rbp
..B4.33:                        # Preds ..B4.31
                                # Execution count [1.00e+00]
        movq      8(%rsp), %rbx                                 #132.63
        lea       8(%rsp), %rax                                 #132.63
        cmpq      %rax, %rbx                                    #132.63
        je        ..B4.38       # Prob 10%                      #132.63
                                # LOE rbx rbp
..B4.34:                        # Preds ..B4.33
                                # Execution count [8.99e-01]
        lea       8(%rsp), %r12                                 #
                                # LOE rbx rbp r12
..B4.35:                        # Preds ..B4.36 ..B4.34
                                # Execution count [5.00e+00]
        movq      %rbx, %rdi                                    #132.63
        movq      (%rbx), %rbx                                  #132.63
#       operator delete(void *)
        call      _ZdlPv                                        #132.63
                                # LOE rbx rbp r12
..B4.36:                        # Preds ..B4.35
                                # Execution count [5.00e+00]
        cmpq      %r12, %rbx                                    #132.63
        jne       ..B4.35       # Prob 82%                      #132.63
                                # LOE rbx rbp r12
..B4.38:                        # Preds ..B4.36 ..B4.33
                                # Execution count [1.00e+00]
        movq      $0, 24(%rsp)                                  #132.63
        lea       8(%rsp), %rax                                 #132.63
        movq      %rax, (%rax)                                  #132.63
        movq      %rax, 8(%rax)                                 #132.63
        addq      $48, %rsp                                     #133.1
	.cfi_def_cfa_offset 48
	.cfi_restore 3
        popq      %rbx                                          #133.1
	.cfi_def_cfa_offset 40
	.cfi_restore 15
        popq      %r15                                          #133.1
	.cfi_def_cfa_offset 32
	.cfi_restore 14
        popq      %r14                                          #133.1
	.cfi_def_cfa_offset 24
	.cfi_restore 13
        popq      %r13                                          #133.1
	.cfi_def_cfa_offset 16
	.cfi_restore 12
        popq      %r12                                          #133.1
	.cfi_def_cfa_offset 8
        ret                                                     #133.1
	.cfi_def_cfa_offset 96
	.cfi_offset 3, -48
	.cfi_offset 12, -16
	.cfi_offset 13, -24
	.cfi_offset 14, -32
	.cfi_offset 15, -40
                                # LOE
..___tag_value__Z13benchmarkSIMDIfLj1EEvPciR16TimingStatistics.241:
..B4.39:                        # Preds ..B4.31 ..B4.29 ..B4.24 ..B4.22 ..B4.17
                                #       ..B4.15 ..B4.13 ..B4.6 ..B4.4
                                # Execution count [0.00e+00]
        movq      %rax, (%rsp)                                  #123.22
                                # LOE rbp
..B4.40:                        # Preds ..B4.39
                                # Execution count [0.00e+00]
        lea       8(%rsp), %rdi                                 #123.22
..___tag_value__Z13benchmarkSIMDIfLj1EEvPciR16TimingStatistics.294:
#       TimingStatistics::~TimingStatistics(TimingStatistics *)
        call      _ZN16TimingStatisticsD1Ev                     #123.22
..___tag_value__Z13benchmarkSIMDIfLj1EEvPciR16TimingStatistics.295:
                                # LOE rbp
..B4.41:                        # Preds ..B4.40
                                # Execution count [0.00e+00]
        movq      (%rsp), %rdi                                  #123.22
..___tag_value__Z13benchmarkSIMDIfLj1EEvPciR16TimingStatistics.296:
        call      _Unwind_Resume                                #123.22
..___tag_value__Z13benchmarkSIMDIfLj1EEvPciR16TimingStatistics.297:
        .align    16,0x90
	.cfi_endproc
                                # LOE
# mark_end;
	.type	_Z13benchmarkSIMDIfLj1EEvPciR16TimingStatistics,@function
	.size	_Z13benchmarkSIMDIfLj1EEvPciR16TimingStatistics,.-_Z13benchmarkSIMDIfLj1EEvPciR16TimingStatistics
	.section .gcc_except_table, "a"
	.align 4
_Z13benchmarkSIMDIfLj1EEvPciR16TimingStatistics$$LSDA:
	.byte	255
	.byte	0
	.uleb128	..___tag_value__Z13benchmarkSIMDIfLj1EEvPciR16TimingStatistics.302 - ..___tag_value__Z13benchmarkSIMDIfLj1EEvPciR16TimingStatistics.301
..___tag_value__Z13benchmarkSIMDIfLj1EEvPciR16TimingStatistics.301:
	.byte	1
	.uleb128	..___tag_value__Z13benchmarkSIMDIfLj1EEvPciR16TimingStatistics.300 - ..___tag_value__Z13benchmarkSIMDIfLj1EEvPciR16TimingStatistics.299
..___tag_value__Z13benchmarkSIMDIfLj1EEvPciR16TimingStatistics.299:
	.uleb128	..___tag_value__Z13benchmarkSIMDIfLj1EEvPciR16TimingStatistics.255 - ..___tag_value__Z13benchmarkSIMDIfLj1EEvPciR16TimingStatistics.242
	.uleb128	..___tag_value__Z13benchmarkSIMDIfLj1EEvPciR16TimingStatistics.256 - ..___tag_value__Z13benchmarkSIMDIfLj1EEvPciR16TimingStatistics.255
	.byte	0
	.byte	0
	.uleb128	..___tag_value__Z13benchmarkSIMDIfLj1EEvPciR16TimingStatistics.257 - ..___tag_value__Z13benchmarkSIMDIfLj1EEvPciR16TimingStatistics.242
	.uleb128	..___tag_value__Z13benchmarkSIMDIfLj1EEvPciR16TimingStatistics.276 - ..___tag_value__Z13benchmarkSIMDIfLj1EEvPciR16TimingStatistics.257
	.uleb128	..___tag_value__Z13benchmarkSIMDIfLj1EEvPciR16TimingStatistics.241 - ..___tag_value__Z13benchmarkSIMDIfLj1EEvPciR16TimingStatistics.242
	.byte	0
	.uleb128	..___tag_value__Z13benchmarkSIMDIfLj1EEvPciR16TimingStatistics.296 - ..___tag_value__Z13benchmarkSIMDIfLj1EEvPciR16TimingStatistics.242
	.uleb128	..___tag_value__Z13benchmarkSIMDIfLj1EEvPciR16TimingStatistics.297 - ..___tag_value__Z13benchmarkSIMDIfLj1EEvPciR16TimingStatistics.296
	.byte	0
	.byte	0
..___tag_value__Z13benchmarkSIMDIfLj1EEvPciR16TimingStatistics.300:
	.byte	1
	.byte	0
	.byte	127
	.byte	0
	.long	0x00000000,0x00000000
..___tag_value__Z13benchmarkSIMDIfLj1EEvPciR16TimingStatistics.302:
	.byte	0
	.data
# -- End  _Z13benchmarkSIMDIfLj1EEvPciR16TimingStatistics
	.section .text._ZNSt7__cxx1110_List_baseIySaIyEE11_M_put_nodeEPSt10_List_nodeIyE, "xaG",@progbits,_ZNSt7__cxx1110_List_baseIySaIyEE11_M_put_nodeEPSt10_List_nodeIyE,comdat
..TXTST4:
# -- Begin  _ZNSt7__cxx1110_List_baseIySaIyEE11_M_put_nodeEPSt10_List_nodeIyE
	.section .text._ZNSt7__cxx1110_List_baseIySaIyEE11_M_put_nodeEPSt10_List_nodeIyE, "xaG",@progbits,_ZNSt7__cxx1110_List_baseIySaIyEE11_M_put_nodeEPSt10_List_nodeIyE,comdat
# mark_begin;
       .align    16,0x90
	.weak _ZNSt7__cxx1110_List_baseIySaIyEE11_M_put_nodeEPSt10_List_nodeIyE
# --- std::__cxx11::_List_base<unsigned long long, std::allocator<unsigned long long>>::_M_put_node(std::__cxx11::_List_base<unsigned long long, std::allocator<unsigned long long>> *, std::_List_node<unsigned long long> *)
_ZNSt7__cxx1110_List_baseIySaIyEE11_M_put_nodeEPSt10_List_nodeIyE:
# parameter 1: %rdi
# parameter 2: %rsi
..B5.1:                         # Preds ..B5.0
                                # Execution count [1.00e+00]
	.cfi_startproc
	.cfi_personality 0x3,__gxx_personality_v0
..___tag_value__ZNSt7__cxx1110_List_baseIySaIyEE11_M_put_nodeEPSt10_List_nodeIyE.303:
..L304:
                                                        #396.7
        movq      %rsi, %rdi                                    #396.35
#       operator delete(void *)
        jmp       _ZdlPv                                        #396.35
        .align    16,0x90
	.cfi_endproc
                                # LOE
# mark_end;
	.type	_ZNSt7__cxx1110_List_baseIySaIyEE11_M_put_nodeEPSt10_List_nodeIyE,@function
	.size	_ZNSt7__cxx1110_List_baseIySaIyEE11_M_put_nodeEPSt10_List_nodeIyE,.-_ZNSt7__cxx1110_List_baseIySaIyEE11_M_put_nodeEPSt10_List_nodeIyE
	.data
# -- End  _ZNSt7__cxx1110_List_baseIySaIyEE11_M_put_nodeEPSt10_List_nodeIyE
	.section .text._Z8run_SIMDIfLj1EEyv, "xaG",@progbits,_Z8run_SIMDIfLj1EEyv,comdat
..TXTST5:
# -- Begin  _Z8run_SIMDIfLj1EEyv
	.section .text._Z8run_SIMDIfLj1EEyv, "xaG",@progbits,_Z8run_SIMDIfLj1EEyv,comdat
# mark_begin;
       .align    16,0x90
	.weak _Z8run_SIMDIfLj1EEyv
# --- run_SIMD<float, 1U>()
_Z8run_SIMDIfLj1EEyv:
..B6.1:                         # Preds ..B6.0
                                # Execution count [1.00e+00]
	.cfi_startproc
	.cfi_personality 0x3,__gxx_personality_v0
..___tag_value__Z8run_SIMDIfLj1EEyv.306:
..L307:
                                                        #91.1
        pushq     %r12                                          #91.1
	.cfi_def_cfa_offset 16
	.cfi_offset 12, -16
        pushq     %r13                                          #91.1
	.cfi_def_cfa_offset 24
	.cfi_offset 13, -24
        pushq     %r14                                          #91.1
	.cfi_def_cfa_offset 32
	.cfi_offset 14, -32
        pushq     %r15                                          #91.1
	.cfi_def_cfa_offset 40
	.cfi_offset 15, -40
        pushq     %rbx                                          #91.1
	.cfi_def_cfa_offset 48
	.cfi_offset 3, -48
        pushq     %rbp                                          #91.1
	.cfi_def_cfa_offset 56
	.cfi_offset 6, -56
        subq      $104, %rsp                                    #91.1
	.cfi_def_cfa_offset 160
        movl      $64, %esi                                     #99.29
        movl      $33554432, %edx                               #99.29
        lea       16(%rsp), %rdi                                #99.29
#       posix_memalign(void **, size_t, size_t)
        call      posix_memalign                                #99.29
                                # LOE eax
..B6.121:                       # Preds ..B6.1
                                # Execution count [1.00e+00]
        movl      %eax, %ebx                                    #99.29
                                # LOE ebx
..B6.2:                         # Preds ..B6.121
                                # Execution count [1.00e+00]
        movl      $128, %ebp                                    #99.29
        testl     %ebx, %ebx                                    #99.29
        je        ..B6.8        # Prob 10%                      #99.29
                                # LOE rbp ebx
..B6.4:                         # Preds ..B6.2 ..B6.6
                                # Execution count [2.09e+00]
        movq      %rbp, %rsi                                    #99.29
        lea       16(%rsp), %rdi                                #99.29
        movl      $33554432, %edx                               #99.29
#       posix_memalign(void **, size_t, size_t)
        call      posix_memalign                                #99.29
                                # LOE rbp eax
..B6.122:                       # Preds ..B6.4
                                # Execution count [2.09e+00]
        movl      %eax, %ebx                                    #99.29
                                # LOE rbp ebx
..B6.5:                         # Preds ..B6.122
                                # Execution count [2.09e+00]
        addq      %rbp, %rbp                                    #99.29
        testl     %ebx, %ebx                                    #99.29
        je        ..B6.8        # Prob 18%                      #99.29
                                # LOE rbp ebx
..B6.6:                         # Preds ..B6.5
                                # Execution count [1.72e+00]
        cmpq      $2048, %rbp                                   #99.29
        jb        ..B6.4        # Prob 80%                      #99.29
                                # LOE rbp ebx
..B6.8:                         # Preds ..B6.5 ..B6.6 ..B6.2
                                # Execution count [1.00e+00]
        testl     %ebx, %ebx                                    #99.29
        je        ..B6.15       # Prob 78%                      #99.29
                                # LOE ebx
..B6.9:                         # Preds ..B6.8
                                # Execution count [2.20e-01]
        movl      $_ZSt4cout, %edi                              #99.29
        movl      $.L_2__STRING.6, %esi                         #99.29
..___tag_value__Z8run_SIMDIfLj1EEyv.321:
#       std::operator<<<std::char_traits<char>>(std::basic_ostream<char, std::char_traits<char>> &, const char *)
        call      _ZStlsISt11char_traitsIcEERSt13basic_ostreamIcT_ES5_PKc #99.29
..___tag_value__Z8run_SIMDIfLj1EEyv.322:
                                # LOE rax ebx
..B6.10:                        # Preds ..B6.9
                                # Execution count [2.20e-01]
        movq      %rax, %rdi                                    #99.29
        movl      %ebx, %esi                                    #99.29
..___tag_value__Z8run_SIMDIfLj1EEyv.323:
#       std::basic_ostream<char, std::char_traits<char>>::operator<<(std::basic_ostream<char, std::char_traits<char>> *, int)
        call      _ZNSolsEi                                     #99.29
..___tag_value__Z8run_SIMDIfLj1EEyv.324:
                                # LOE rax
..B6.11:                        # Preds ..B6.10
                                # Execution count [2.20e-01]
        movq      %rax, %rdi                                    #99.29
        movl      $_ZSt4endlIcSt11char_traitsIcEERSt13basic_ostreamIT_T0_ES6_, %esi #99.29
..___tag_value__Z8run_SIMDIfLj1EEyv.325:
#       std::basic_ostream<char, std::char_traits<char>>::operator<<(std::basic_ostream<char, std::char_traits<char>> *, std::basic_ostream<char, std::char_traits<char>>::__ostream_type &(*)(std::basic_ostream<char, std::char_traits<char>>::__ostream_type &))
        call      _ZNSolsEPFRSoS_E                              #99.29
..___tag_value__Z8run_SIMDIfLj1EEyv.326:
                                # LOE
..B6.12:                        # Preds ..B6.11
                                # Execution count [2.20e-01]
        movl      $_ZSt4cout, %edi                              #99.29
        movl      $.L_2__STRING.7, %esi                         #99.29
..___tag_value__Z8run_SIMDIfLj1EEyv.327:
#       std::operator<<<std::char_traits<char>>(std::basic_ostream<char, std::char_traits<char>> &, const char *)
        call      _ZStlsISt11char_traitsIcEERSt13basic_ostreamIcT_ES5_PKc #99.29
..___tag_value__Z8run_SIMDIfLj1EEyv.328:
                                # LOE rax
..B6.13:                        # Preds ..B6.12
                                # Execution count [2.20e-01]
        movq      %rax, %rdi                                    #99.29
        movl      $8, %esi                                      #99.29
..___tag_value__Z8run_SIMDIfLj1EEyv.329:
#       std::basic_ostream<char, std::char_traits<char>>::operator<<(std::basic_ostream<char, std::char_traits<char>> *, unsigned long)
        call      _ZNSolsEm                                     #99.29
..___tag_value__Z8run_SIMDIfLj1EEyv.330:
                                # LOE rax
..B6.14:                        # Preds ..B6.13
                                # Execution count [2.20e-01]
        movq      %rax, %rdi                                    #99.29
        movl      $_ZSt4endlIcSt11char_traitsIcEERSt13basic_ostreamIT_T0_ES6_, %esi #99.29
..___tag_value__Z8run_SIMDIfLj1EEyv.331:
#       std::basic_ostream<char, std::char_traits<char>>::operator<<(std::basic_ostream<char, std::char_traits<char>> *, std::basic_ostream<char, std::char_traits<char>>::__ostream_type &(*)(std::basic_ostream<char, std::char_traits<char>>::__ostream_type &))
        call      _ZNSolsEPFRSoS_E                              #99.29
..___tag_value__Z8run_SIMDIfLj1EEyv.332:
                                # LOE
..B6.15:                        # Preds ..B6.14 ..B6.8
                                # Execution count [1.00e+00]
        movl      $64, %esi                                     #100.29
        lea       24(%rsp), %rdi                                #100.29
        movl      $33554432, %edx                               #100.29
        movq      -8(%rdi), %r14                                #99.29
#       posix_memalign(void **, size_t, size_t)
        call      posix_memalign                                #100.29
                                # LOE r14 eax
..B6.127:                       # Preds ..B6.15
                                # Execution count [1.00e+00]
        movl      %eax, %ebx                                    #100.29
                                # LOE r14 ebx
..B6.16:                        # Preds ..B6.127
                                # Execution count [1.00e+00]
        movl      $128, %ebp                                    #100.29
        testl     %ebx, %ebx                                    #100.29
        je        ..B6.22       # Prob 10%                      #100.29
                                # LOE rbp r14 ebx
..B6.18:                        # Preds ..B6.16 ..B6.20
                                # Execution count [2.09e+00]
        movq      %rbp, %rsi                                    #100.29
        lea       24(%rsp), %rdi                                #100.29
        movl      $33554432, %edx                               #100.29
#       posix_memalign(void **, size_t, size_t)
        call      posix_memalign                                #100.29
                                # LOE rbp r14 eax
..B6.128:                       # Preds ..B6.18
                                # Execution count [2.09e+00]
        movl      %eax, %ebx                                    #100.29
                                # LOE rbp r14 ebx
..B6.19:                        # Preds ..B6.128
                                # Execution count [2.09e+00]
        addq      %rbp, %rbp                                    #100.29
        testl     %ebx, %ebx                                    #100.29
        je        ..B6.22       # Prob 18%                      #100.29
                                # LOE rbp r14 ebx
..B6.20:                        # Preds ..B6.19
                                # Execution count [1.72e+00]
        cmpq      $2048, %rbp                                   #100.29
        jb        ..B6.18       # Prob 80%                      #100.29
                                # LOE rbp r14 ebx
..B6.22:                        # Preds ..B6.19 ..B6.20 ..B6.16
                                # Execution count [1.00e+00]
        testl     %ebx, %ebx                                    #100.29
        je        ..B6.29       # Prob 78%                      #100.29
                                # LOE r14 ebx
..B6.23:                        # Preds ..B6.22
                                # Execution count [2.20e-01]
        movl      $_ZSt4cout, %edi                              #100.29
        movl      $.L_2__STRING.6, %esi                         #100.29
..___tag_value__Z8run_SIMDIfLj1EEyv.333:
#       std::operator<<<std::char_traits<char>>(std::basic_ostream<char, std::char_traits<char>> &, const char *)
        call      _ZStlsISt11char_traitsIcEERSt13basic_ostreamIcT_ES5_PKc #100.29
..___tag_value__Z8run_SIMDIfLj1EEyv.334:
                                # LOE rax r14 ebx
..B6.24:                        # Preds ..B6.23
                                # Execution count [2.20e-01]
        movq      %rax, %rdi                                    #100.29
        movl      %ebx, %esi                                    #100.29
..___tag_value__Z8run_SIMDIfLj1EEyv.335:
#       std::basic_ostream<char, std::char_traits<char>>::operator<<(std::basic_ostream<char, std::char_traits<char>> *, int)
        call      _ZNSolsEi                                     #100.29
..___tag_value__Z8run_SIMDIfLj1EEyv.336:
                                # LOE rax r14
..B6.25:                        # Preds ..B6.24
                                # Execution count [2.20e-01]
        movq      %rax, %rdi                                    #100.29
        movl      $_ZSt4endlIcSt11char_traitsIcEERSt13basic_ostreamIT_T0_ES6_, %esi #100.29
..___tag_value__Z8run_SIMDIfLj1EEyv.337:
#       std::basic_ostream<char, std::char_traits<char>>::operator<<(std::basic_ostream<char, std::char_traits<char>> *, std::basic_ostream<char, std::char_traits<char>>::__ostream_type &(*)(std::basic_ostream<char, std::char_traits<char>>::__ostream_type &))
        call      _ZNSolsEPFRSoS_E                              #100.29
..___tag_value__Z8run_SIMDIfLj1EEyv.338:
                                # LOE r14
..B6.26:                        # Preds ..B6.25
                                # Execution count [2.20e-01]
        movl      $_ZSt4cout, %edi                              #100.29
        movl      $.L_2__STRING.7, %esi                         #100.29
..___tag_value__Z8run_SIMDIfLj1EEyv.339:
#       std::operator<<<std::char_traits<char>>(std::basic_ostream<char, std::char_traits<char>> &, const char *)
        call      _ZStlsISt11char_traitsIcEERSt13basic_ostreamIcT_ES5_PKc #100.29
..___tag_value__Z8run_SIMDIfLj1EEyv.340:
                                # LOE rax r14
..B6.27:                        # Preds ..B6.26
                                # Execution count [2.20e-01]
        movq      %rax, %rdi                                    #100.29
        movl      $8, %esi                                      #100.29
..___tag_value__Z8run_SIMDIfLj1EEyv.341:
#       std::basic_ostream<char, std::char_traits<char>>::operator<<(std::basic_ostream<char, std::char_traits<char>> *, unsigned long)
        call      _ZNSolsEm                                     #100.29
..___tag_value__Z8run_SIMDIfLj1EEyv.342:
                                # LOE rax r14
..B6.28:                        # Preds ..B6.27
                                # Execution count [2.20e-01]
        movq      %rax, %rdi                                    #100.29
        movl      $_ZSt4endlIcSt11char_traitsIcEERSt13basic_ostreamIT_T0_ES6_, %esi #100.29
..___tag_value__Z8run_SIMDIfLj1EEyv.343:
#       std::basic_ostream<char, std::char_traits<char>>::operator<<(std::basic_ostream<char, std::char_traits<char>> *, std::basic_ostream<char, std::char_traits<char>>::__ostream_type &(*)(std::basic_ostream<char, std::char_traits<char>>::__ostream_type &))
        call      _ZNSolsEPFRSoS_E                              #100.29
..___tag_value__Z8run_SIMDIfLj1EEyv.344:
                                # LOE r14
..B6.29:                        # Preds ..B6.28 ..B6.22
                                # Execution count [1.00e+00]
        movl      $64, %esi                                     #101.29
        lea       32(%rsp), %rdi                                #101.29
        movl      $33554432, %edx                               #101.29
        movq      -8(%rdi), %r15                                #100.29
#       posix_memalign(void **, size_t, size_t)
        call      posix_memalign                                #101.29
                                # LOE r14 r15 eax
..B6.133:                       # Preds ..B6.29
                                # Execution count [1.00e+00]
        movl      %eax, %ebx                                    #101.29
                                # LOE r14 r15 ebx
..B6.30:                        # Preds ..B6.133
                                # Execution count [1.00e+00]
        movl      $128, %ebp                                    #101.29
        testl     %ebx, %ebx                                    #101.29
        je        ..B6.36       # Prob 10%                      #101.29
                                # LOE rbp r14 r15 ebx
..B6.32:                        # Preds ..B6.30 ..B6.34
                                # Execution count [2.09e+00]
        movq      %rbp, %rsi                                    #101.29
        lea       32(%rsp), %rdi                                #101.29
        movl      $33554432, %edx                               #101.29
#       posix_memalign(void **, size_t, size_t)
        call      posix_memalign                                #101.29
                                # LOE rbp r14 r15 eax
..B6.134:                       # Preds ..B6.32
                                # Execution count [2.09e+00]
        movl      %eax, %ebx                                    #101.29
                                # LOE rbp r14 r15 ebx
..B6.33:                        # Preds ..B6.134
                                # Execution count [2.09e+00]
        addq      %rbp, %rbp                                    #101.29
        testl     %ebx, %ebx                                    #101.29
        je        ..B6.36       # Prob 18%                      #101.29
                                # LOE rbp r14 r15 ebx
..B6.34:                        # Preds ..B6.33
                                # Execution count [1.72e+00]
        cmpq      $2048, %rbp                                   #101.29
        jb        ..B6.32       # Prob 80%                      #101.29
                                # LOE rbp r14 r15 ebx
..B6.36:                        # Preds ..B6.33 ..B6.34 ..B6.30
                                # Execution count [1.00e+00]
        testl     %ebx, %ebx                                    #101.29
        je        ..B6.43       # Prob 78%                      #101.29
                                # LOE r14 r15 ebx
..B6.37:                        # Preds ..B6.36
                                # Execution count [2.20e-01]
        movl      $_ZSt4cout, %edi                              #101.29
        movl      $.L_2__STRING.6, %esi                         #101.29
..___tag_value__Z8run_SIMDIfLj1EEyv.345:
#       std::operator<<<std::char_traits<char>>(std::basic_ostream<char, std::char_traits<char>> &, const char *)
        call      _ZStlsISt11char_traitsIcEERSt13basic_ostreamIcT_ES5_PKc #101.29
..___tag_value__Z8run_SIMDIfLj1EEyv.346:
                                # LOE rax r14 r15 ebx
..B6.38:                        # Preds ..B6.37
                                # Execution count [2.20e-01]
        movq      %rax, %rdi                                    #101.29
        movl      %ebx, %esi                                    #101.29
..___tag_value__Z8run_SIMDIfLj1EEyv.347:
#       std::basic_ostream<char, std::char_traits<char>>::operator<<(std::basic_ostream<char, std::char_traits<char>> *, int)
        call      _ZNSolsEi                                     #101.29
..___tag_value__Z8run_SIMDIfLj1EEyv.348:
                                # LOE rax r14 r15
..B6.39:                        # Preds ..B6.38
                                # Execution count [2.20e-01]
        movq      %rax, %rdi                                    #101.29
        movl      $_ZSt4endlIcSt11char_traitsIcEERSt13basic_ostreamIT_T0_ES6_, %esi #101.29
..___tag_value__Z8run_SIMDIfLj1EEyv.349:
#       std::basic_ostream<char, std::char_traits<char>>::operator<<(std::basic_ostream<char, std::char_traits<char>> *, std::basic_ostream<char, std::char_traits<char>>::__ostream_type &(*)(std::basic_ostream<char, std::char_traits<char>>::__ostream_type &))
        call      _ZNSolsEPFRSoS_E                              #101.29
..___tag_value__Z8run_SIMDIfLj1EEyv.350:
                                # LOE r14 r15
..B6.40:                        # Preds ..B6.39
                                # Execution count [2.20e-01]
        movl      $_ZSt4cout, %edi                              #101.29
        movl      $.L_2__STRING.7, %esi                         #101.29
..___tag_value__Z8run_SIMDIfLj1EEyv.351:
#       std::operator<<<std::char_traits<char>>(std::basic_ostream<char, std::char_traits<char>> &, const char *)
        call      _ZStlsISt11char_traitsIcEERSt13basic_ostreamIcT_ES5_PKc #101.29
..___tag_value__Z8run_SIMDIfLj1EEyv.352:
                                # LOE rax r14 r15
..B6.41:                        # Preds ..B6.40
                                # Execution count [2.20e-01]
        movq      %rax, %rdi                                    #101.29
        movl      $8, %esi                                      #101.29
..___tag_value__Z8run_SIMDIfLj1EEyv.353:
#       std::basic_ostream<char, std::char_traits<char>>::operator<<(std::basic_ostream<char, std::char_traits<char>> *, unsigned long)
        call      _ZNSolsEm                                     #101.29
..___tag_value__Z8run_SIMDIfLj1EEyv.354:
                                # LOE rax r14 r15
..B6.42:                        # Preds ..B6.41
                                # Execution count [2.20e-01]
        movq      %rax, %rdi                                    #101.29
        movl      $_ZSt4endlIcSt11char_traitsIcEERSt13basic_ostreamIT_T0_ES6_, %esi #101.29
..___tag_value__Z8run_SIMDIfLj1EEyv.355:
#       std::basic_ostream<char, std::char_traits<char>>::operator<<(std::basic_ostream<char, std::char_traits<char>> *, std::basic_ostream<char, std::char_traits<char>>::__ostream_type &(*)(std::basic_ostream<char, std::char_traits<char>>::__ostream_type &))
        call      _ZNSolsEPFRSoS_E                              #101.29
..___tag_value__Z8run_SIMDIfLj1EEyv.356:
                                # LOE r14 r15
..B6.43:                        # Preds ..B6.42 ..B6.36
                                # Execution count [1.00e+00]
        movl      $64, %esi                                     #103.25
        lea       40(%rsp), %rdi                                #103.25
        movl      $33554432, %edx                               #103.25
        movq      -8(%rdi), %r12                                #101.29
#       posix_memalign(void **, size_t, size_t)
        call      posix_memalign                                #103.25
                                # LOE r12 r14 r15 eax
..B6.139:                       # Preds ..B6.43
                                # Execution count [1.00e+00]
        movl      %eax, %ebx                                    #103.25
                                # LOE r12 r14 r15 ebx
..B6.44:                        # Preds ..B6.139
                                # Execution count [1.00e+00]
        movl      $128, %ebp                                    #103.25
        testl     %ebx, %ebx                                    #103.25
        je        ..B6.50       # Prob 10%                      #103.25
                                # LOE rbp r12 r14 r15 ebx
..B6.46:                        # Preds ..B6.44 ..B6.48
                                # Execution count [2.09e+00]
        movq      %rbp, %rsi                                    #103.25
        lea       40(%rsp), %rdi                                #103.25
        movl      $33554432, %edx                               #103.25
#       posix_memalign(void **, size_t, size_t)
        call      posix_memalign                                #103.25
                                # LOE rbp r12 r14 r15 eax
..B6.140:                       # Preds ..B6.46
                                # Execution count [2.09e+00]
        movl      %eax, %ebx                                    #103.25
                                # LOE rbp r12 r14 r15 ebx
..B6.47:                        # Preds ..B6.140
                                # Execution count [2.09e+00]
        addq      %rbp, %rbp                                    #103.25
        testl     %ebx, %ebx                                    #103.25
        je        ..B6.50       # Prob 18%                      #103.25
                                # LOE rbp r12 r14 r15 ebx
..B6.48:                        # Preds ..B6.47
                                # Execution count [1.72e+00]
        cmpq      $2048, %rbp                                   #103.25
        jb        ..B6.46       # Prob 80%                      #103.25
                                # LOE rbp r12 r14 r15 ebx
..B6.50:                        # Preds ..B6.47 ..B6.48 ..B6.44
                                # Execution count [1.00e+00]
        testl     %ebx, %ebx                                    #103.25
        je        ..B6.57       # Prob 78%                      #103.25
                                # LOE r12 r14 r15 ebx
..B6.51:                        # Preds ..B6.50
                                # Execution count [2.20e-01]
        movl      $_ZSt4cout, %edi                              #103.25
        movl      $.L_2__STRING.6, %esi                         #103.25
..___tag_value__Z8run_SIMDIfLj1EEyv.357:
#       std::operator<<<std::char_traits<char>>(std::basic_ostream<char, std::char_traits<char>> &, const char *)
        call      _ZStlsISt11char_traitsIcEERSt13basic_ostreamIcT_ES5_PKc #103.25
..___tag_value__Z8run_SIMDIfLj1EEyv.358:
                                # LOE rax r12 r14 r15 ebx
..B6.52:                        # Preds ..B6.51
                                # Execution count [2.20e-01]
        movq      %rax, %rdi                                    #103.25
        movl      %ebx, %esi                                    #103.25
..___tag_value__Z8run_SIMDIfLj1EEyv.359:
#       std::basic_ostream<char, std::char_traits<char>>::operator<<(std::basic_ostream<char, std::char_traits<char>> *, int)
        call      _ZNSolsEi                                     #103.25
..___tag_value__Z8run_SIMDIfLj1EEyv.360:
                                # LOE rax r12 r14 r15
..B6.53:                        # Preds ..B6.52
                                # Execution count [2.20e-01]
        movq      %rax, %rdi                                    #103.25
        movl      $_ZSt4endlIcSt11char_traitsIcEERSt13basic_ostreamIT_T0_ES6_, %esi #103.25
..___tag_value__Z8run_SIMDIfLj1EEyv.361:
#       std::basic_ostream<char, std::char_traits<char>>::operator<<(std::basic_ostream<char, std::char_traits<char>> *, std::basic_ostream<char, std::char_traits<char>>::__ostream_type &(*)(std::basic_ostream<char, std::char_traits<char>>::__ostream_type &))
        call      _ZNSolsEPFRSoS_E                              #103.25
..___tag_value__Z8run_SIMDIfLj1EEyv.362:
                                # LOE r12 r14 r15
..B6.54:                        # Preds ..B6.53
                                # Execution count [2.20e-01]
        movl      $_ZSt4cout, %edi                              #103.25
        movl      $.L_2__STRING.7, %esi                         #103.25
..___tag_value__Z8run_SIMDIfLj1EEyv.363:
#       std::operator<<<std::char_traits<char>>(std::basic_ostream<char, std::char_traits<char>> &, const char *)
        call      _ZStlsISt11char_traitsIcEERSt13basic_ostreamIcT_ES5_PKc #103.25
..___tag_value__Z8run_SIMDIfLj1EEyv.364:
                                # LOE rax r12 r14 r15
..B6.55:                        # Preds ..B6.54
                                # Execution count [2.20e-01]
        movq      %rax, %rdi                                    #103.25
        movl      $8, %esi                                      #103.25
..___tag_value__Z8run_SIMDIfLj1EEyv.365:
#       std::basic_ostream<char, std::char_traits<char>>::operator<<(std::basic_ostream<char, std::char_traits<char>> *, unsigned long)
        call      _ZNSolsEm                                     #103.25
..___tag_value__Z8run_SIMDIfLj1EEyv.366:
                                # LOE rax r12 r14 r15
..B6.56:                        # Preds ..B6.55
                                # Execution count [2.20e-01]
        movq      %rax, %rdi                                    #103.25
        movl      $_ZSt4endlIcSt11char_traitsIcEERSt13basic_ostreamIT_T0_ES6_, %esi #103.25
..___tag_value__Z8run_SIMDIfLj1EEyv.367:
#       std::basic_ostream<char, std::char_traits<char>>::operator<<(std::basic_ostream<char, std::char_traits<char>> *, std::basic_ostream<char, std::char_traits<char>>::__ostream_type &(*)(std::basic_ostream<char, std::char_traits<char>>::__ostream_type &))
        call      _ZNSolsEPFRSoS_E                              #103.25
..___tag_value__Z8run_SIMDIfLj1EEyv.368:
                                # LOE r12 r14 r15
..B6.57:                        # Preds ..B6.56 ..B6.50
                                # Execution count [1.00e+00]
        movl      $64, %esi                                     #104.30
        lea       48(%rsp), %rdi                                #104.30
        movl      $33554432, %edx                               #104.30
        movq      -8(%rdi), %r13                                #103.25
#       posix_memalign(void **, size_t, size_t)
        call      posix_memalign                                #104.30
                                # LOE r12 r13 r14 r15 eax
..B6.145:                       # Preds ..B6.57
                                # Execution count [1.00e+00]
        movl      %eax, %ebx                                    #104.30
                                # LOE r12 r13 r14 r15 ebx
..B6.58:                        # Preds ..B6.145
                                # Execution count [1.00e+00]
        movl      $128, %ebp                                    #104.30
        testl     %ebx, %ebx                                    #104.30
        je        ..B6.64       # Prob 10%                      #104.30
                                # LOE rbp r12 r13 r14 r15 ebx
..B6.60:                        # Preds ..B6.58 ..B6.62
                                # Execution count [2.09e+00]
        movq      %rbp, %rsi                                    #104.30
        lea       48(%rsp), %rdi                                #104.30
        movl      $33554432, %edx                               #104.30
#       posix_memalign(void **, size_t, size_t)
        call      posix_memalign                                #104.30
                                # LOE rbp r12 r13 r14 r15 eax
..B6.146:                       # Preds ..B6.60
                                # Execution count [2.09e+00]
        movl      %eax, %ebx                                    #104.30
                                # LOE rbp r12 r13 r14 r15 ebx
..B6.61:                        # Preds ..B6.146
                                # Execution count [2.09e+00]
        addq      %rbp, %rbp                                    #104.30
        testl     %ebx, %ebx                                    #104.30
        je        ..B6.64       # Prob 18%                      #104.30
                                # LOE rbp r12 r13 r14 r15 ebx
..B6.62:                        # Preds ..B6.61
                                # Execution count [1.72e+00]
        cmpq      $2048, %rbp                                   #104.30
        jb        ..B6.60       # Prob 80%                      #104.30
                                # LOE rbp r12 r13 r14 r15 ebx
..B6.64:                        # Preds ..B6.61 ..B6.62 ..B6.58
                                # Execution count [1.00e+00]
        testl     %ebx, %ebx                                    #104.30
        je        ..B6.71       # Prob 78%                      #104.30
                                # LOE r12 r13 r14 r15 ebx
..B6.65:                        # Preds ..B6.64
                                # Execution count [2.20e-01]
        movl      $_ZSt4cout, %edi                              #104.30
        movl      $.L_2__STRING.6, %esi                         #104.30
..___tag_value__Z8run_SIMDIfLj1EEyv.369:
#       std::operator<<<std::char_traits<char>>(std::basic_ostream<char, std::char_traits<char>> &, const char *)
        call      _ZStlsISt11char_traitsIcEERSt13basic_ostreamIcT_ES5_PKc #104.30
..___tag_value__Z8run_SIMDIfLj1EEyv.370:
                                # LOE rax r12 r13 r14 r15 ebx
..B6.66:                        # Preds ..B6.65
                                # Execution count [2.20e-01]
        movq      %rax, %rdi                                    #104.30
        movl      %ebx, %esi                                    #104.30
..___tag_value__Z8run_SIMDIfLj1EEyv.371:
#       std::basic_ostream<char, std::char_traits<char>>::operator<<(std::basic_ostream<char, std::char_traits<char>> *, int)
        call      _ZNSolsEi                                     #104.30
..___tag_value__Z8run_SIMDIfLj1EEyv.372:
                                # LOE rax r12 r13 r14 r15
..B6.67:                        # Preds ..B6.66
                                # Execution count [2.20e-01]
        movq      %rax, %rdi                                    #104.30
        movl      $_ZSt4endlIcSt11char_traitsIcEERSt13basic_ostreamIT_T0_ES6_, %esi #104.30
..___tag_value__Z8run_SIMDIfLj1EEyv.373:
#       std::basic_ostream<char, std::char_traits<char>>::operator<<(std::basic_ostream<char, std::char_traits<char>> *, std::basic_ostream<char, std::char_traits<char>>::__ostream_type &(*)(std::basic_ostream<char, std::char_traits<char>>::__ostream_type &))
        call      _ZNSolsEPFRSoS_E                              #104.30
..___tag_value__Z8run_SIMDIfLj1EEyv.374:
                                # LOE r12 r13 r14 r15
..B6.68:                        # Preds ..B6.67
                                # Execution count [2.20e-01]
        movl      $_ZSt4cout, %edi                              #104.30
        movl      $.L_2__STRING.7, %esi                         #104.30
..___tag_value__Z8run_SIMDIfLj1EEyv.375:
#       std::operator<<<std::char_traits<char>>(std::basic_ostream<char, std::char_traits<char>> &, const char *)
        call      _ZStlsISt11char_traitsIcEERSt13basic_ostreamIcT_ES5_PKc #104.30
..___tag_value__Z8run_SIMDIfLj1EEyv.376:
                                # LOE rax r12 r13 r14 r15
..B6.69:                        # Preds ..B6.68
                                # Execution count [2.20e-01]
        movq      %rax, %rdi                                    #104.30
        movl      $8, %esi                                      #104.30
..___tag_value__Z8run_SIMDIfLj1EEyv.377:
#       std::basic_ostream<char, std::char_traits<char>>::operator<<(std::basic_ostream<char, std::char_traits<char>> *, unsigned long)
        call      _ZNSolsEm                                     #104.30
..___tag_value__Z8run_SIMDIfLj1EEyv.378:
                                # LOE rax r12 r13 r14 r15
..B6.70:                        # Preds ..B6.69
                                # Execution count [2.20e-01]
        movq      %rax, %rdi                                    #104.30
        movl      $_ZSt4endlIcSt11char_traitsIcEERSt13basic_ostreamIT_T0_ES6_, %esi #104.30
..___tag_value__Z8run_SIMDIfLj1EEyv.379:
#       std::basic_ostream<char, std::char_traits<char>>::operator<<(std::basic_ostream<char, std::char_traits<char>> *, std::basic_ostream<char, std::char_traits<char>>::__ostream_type &(*)(std::basic_ostream<char, std::char_traits<char>>::__ostream_type &))
        call      _ZNSolsEPFRSoS_E                              #104.30
..___tag_value__Z8run_SIMDIfLj1EEyv.380:
                                # LOE r12 r13 r14 r15
..B6.71:                        # Preds ..B6.70 ..B6.64
                                # Execution count [1.00e+00]
        movl      $64, %esi                                     #105.30
        lea       56(%rsp), %rdi                                #105.30
        movl      $33554432, %edx                               #105.30
        movq      -8(%rdi), %rbx                                #104.30
#       posix_memalign(void **, size_t, size_t)
        call      posix_memalign                                #105.30
                                # LOE rbx r12 r13 r14 r15 eax
..B6.151:                       # Preds ..B6.71
                                # Execution count [1.00e+00]
        movl      %eax, %ebp                                    #105.30
                                # LOE rbx r12 r13 r14 r15 ebp
..B6.72:                        # Preds ..B6.151
                                # Execution count [1.00e+00]
        movl      $128, %esi                                    #105.30
        testl     %ebp, %ebp                                    #105.30
        je        ..B6.78       # Prob 10%                      #105.30
                                # LOE rbx rsi r12 r13 r14 r15 ebp
..B6.73:                        # Preds ..B6.72
                                # Execution count [7.20e-01]
        movq      %rbx, %rbp                                    #
        movq      %rsi, %rbx                                    #
                                # LOE rbx rbp r12 r13 r14 r15
..B6.74:                        # Preds ..B6.76 ..B6.73
                                # Execution count [2.09e+00]
        movq      %rbx, %rsi                                    #105.30
        lea       56(%rsp), %rdi                                #105.30
        movl      $33554432, %edx                               #105.30
#       posix_memalign(void **, size_t, size_t)
        call      posix_memalign                                #105.30
                                # LOE rbx rbp r12 r13 r14 r15 eax
..B6.75:                        # Preds ..B6.74
                                # Execution count [2.09e+00]
        addq      %rbx, %rbx                                    #105.30
        testl     %eax, %eax                                    #105.30
        je        ..B6.77       # Prob 18%                      #105.30
                                # LOE rbx rbp r12 r13 r14 r15 eax
..B6.76:                        # Preds ..B6.75
                                # Execution count [1.72e+00]
        cmpq      $2048, %rbx                                   #105.30
        jb        ..B6.74       # Prob 80%                      #105.30
                                # LOE rbx rbp r12 r13 r14 r15 eax
..B6.77:                        # Preds ..B6.75 ..B6.76
                                # Execution count [3.43e-01]
        movq      %rbp, %rbx                                    #
        movl      %eax, %ebp                                    #
                                # LOE rbx r12 r13 r14 r15 ebp
..B6.78:                        # Preds ..B6.77 ..B6.72
                                # Execution count [1.00e+00]
        testl     %ebp, %ebp                                    #105.30
        je        ..B6.85       # Prob 78%                      #105.30
                                # LOE rbx r12 r13 r14 r15 ebp
..B6.79:                        # Preds ..B6.78
                                # Execution count [2.20e-01]
        movl      $_ZSt4cout, %edi                              #105.30
        movl      $.L_2__STRING.6, %esi                         #105.30
..___tag_value__Z8run_SIMDIfLj1EEyv.381:
#       std::operator<<<std::char_traits<char>>(std::basic_ostream<char, std::char_traits<char>> &, const char *)
        call      _ZStlsISt11char_traitsIcEERSt13basic_ostreamIcT_ES5_PKc #105.30
..___tag_value__Z8run_SIMDIfLj1EEyv.382:
                                # LOE rax rbx r12 r13 r14 r15 ebp
..B6.80:                        # Preds ..B6.79
                                # Execution count [2.20e-01]
        movq      %rax, %rdi                                    #105.30
        movl      %ebp, %esi                                    #105.30
..___tag_value__Z8run_SIMDIfLj1EEyv.383:
#       std::basic_ostream<char, std::char_traits<char>>::operator<<(std::basic_ostream<char, std::char_traits<char>> *, int)
        call      _ZNSolsEi                                     #105.30
..___tag_value__Z8run_SIMDIfLj1EEyv.384:
                                # LOE rax rbx r12 r13 r14 r15
..B6.81:                        # Preds ..B6.80
                                # Execution count [2.20e-01]
        movq      %rax, %rdi                                    #105.30
        movl      $_ZSt4endlIcSt11char_traitsIcEERSt13basic_ostreamIT_T0_ES6_, %esi #105.30
..___tag_value__Z8run_SIMDIfLj1EEyv.385:
#       std::basic_ostream<char, std::char_traits<char>>::operator<<(std::basic_ostream<char, std::char_traits<char>> *, std::basic_ostream<char, std::char_traits<char>>::__ostream_type &(*)(std::basic_ostream<char, std::char_traits<char>>::__ostream_type &))
        call      _ZNSolsEPFRSoS_E                              #105.30
..___tag_value__Z8run_SIMDIfLj1EEyv.386:
                                # LOE rbx r12 r13 r14 r15
..B6.82:                        # Preds ..B6.81
                                # Execution count [2.20e-01]
        movl      $_ZSt4cout, %edi                              #105.30
        movl      $.L_2__STRING.7, %esi                         #105.30
..___tag_value__Z8run_SIMDIfLj1EEyv.387:
#       std::operator<<<std::char_traits<char>>(std::basic_ostream<char, std::char_traits<char>> &, const char *)
        call      _ZStlsISt11char_traitsIcEERSt13basic_ostreamIcT_ES5_PKc #105.30
..___tag_value__Z8run_SIMDIfLj1EEyv.388:
                                # LOE rax rbx r12 r13 r14 r15
..B6.83:                        # Preds ..B6.82
                                # Execution count [2.20e-01]
        movq      %rax, %rdi                                    #105.30
        movl      $8, %esi                                      #105.30
..___tag_value__Z8run_SIMDIfLj1EEyv.389:
#       std::basic_ostream<char, std::char_traits<char>>::operator<<(std::basic_ostream<char, std::char_traits<char>> *, unsigned long)
        call      _ZNSolsEm                                     #105.30
..___tag_value__Z8run_SIMDIfLj1EEyv.390:
                                # LOE rax rbx r12 r13 r14 r15
..B6.84:                        # Preds ..B6.83
                                # Execution count [2.20e-01]
        movq      %rax, %rdi                                    #105.30
        movl      $_ZSt4endlIcSt11char_traitsIcEERSt13basic_ostreamIT_T0_ES6_, %esi #105.30
..___tag_value__Z8run_SIMDIfLj1EEyv.391:
#       std::basic_ostream<char, std::char_traits<char>>::operator<<(std::basic_ostream<char, std::char_traits<char>> *, std::basic_ostream<char, std::char_traits<char>>::__ostream_type &(*)(std::basic_ostream<char, std::char_traits<char>>::__ostream_type &))
        call      _ZNSolsEPFRSoS_E                              #105.30
..___tag_value__Z8run_SIMDIfLj1EEyv.392:
                                # LOE rbx r12 r13 r14 r15
..B6.85:                        # Preds ..B6.84 ..B6.78
                                # Execution count [1.00e+00]
        xorl      %edi, %edi                                    #107.25
        movq      56(%rsp), %rbp                                #105.30
#       time(time_t *)
        call      time                                          #107.25
                                # LOE rax rbx rbp r12 r13 r14 r15
..B6.86:                        # Preds ..B6.85
                                # Execution count [1.00e+00]
        movl      %eax, %edi                                    #107.5
#       srand(unsigned int)
        call      srand                                         #107.5
                                # LOE rbx rbp r12 r13 r14 r15
..B6.87:                        # Preds ..B6.86
                                # Execution count [1.88e-01]
        xorl      %eax, %eax                                    #110.16
        vmovss    .L_2il0floatpacket.30(%rip), %xmm3            #114.16
        movq      %r12, (%rsp)                                  #119.17[spill]
        movq      %rax, %r12                                    #119.17
                                # LOE rbx rbp r12 r13 r14 r15
..B6.88:                        # Preds ..B6.91 ..B6.87
                                # Execution count [1.00e+06]
#       rand()
        call      rand                                          #113.45
                                # LOE rbx rbp r12 r13 r14 r15 eax
..B6.89:                        # Preds ..B6.88
                                # Execution count [1.00e+06]
        vxorps    %xmm1, %xmm1, %xmm1                           #113.45
        vcvtsi2ss %eax, %xmm1, %xmm1                            #113.45
        vmovss    .L_2il0floatpacket.31(%rip), %xmm0            #114.9
        vfmsub213ss .L_2il0floatpacket.32(%rip), %xmm0, %xmm1   #114.9
        vmulss    .L_2il0floatpacket.30(%rip), %xmm1, %xmm2     #114.38
        vmovss    %xmm2, (%r14,%r12,4)                          #114.9
#       rand()
        call      rand                                          #115.37
                                # LOE rbx rbp r12 r13 r14 r15 eax
..B6.90:                        # Preds ..B6.89
                                # Execution count [1.00e+06]
        vxorps    %xmm1, %xmm1, %xmm1                           #115.37
        vcvtsi2ss %eax, %xmm1, %xmm1                            #115.37
        vmovss    .L_2il0floatpacket.31(%rip), %xmm0            #116.9
        vfmsub213ss .L_2il0floatpacket.32(%rip), %xmm0, %xmm1   #116.9
        vmulss    .L_2il0floatpacket.30(%rip), %xmm1, %xmm2     #116.38
        vmovss    %xmm2, (%r15,%r12,4)                          #116.9
#       rand()
        call      rand                                          #117.37
                                # LOE rbx rbp r12 r13 r14 r15 eax
..B6.91:                        # Preds ..B6.90
                                # Execution count [1.00e+06]
        vxorps    %xmm1, %xmm1, %xmm1                           #117.37
        xorl      %ecx, %ecx                                    #119.9
        vcvtsi2ss %eax, %xmm1, %xmm1                            #117.37
        vmovss    .L_2il0floatpacket.31(%rip), %xmm0            #118.9
        vfmsub213ss .L_2il0floatpacket.32(%rip), %xmm0, %xmm1   #118.9
        vmulss    .L_2il0floatpacket.33(%rip), %xmm1, %xmm2     #118.38
        movq      (%rsp), %rdx                                  #118.9[spill]
        vmovss    %xmm2, (%rdx,%r12,4)                          #118.9
        movl      %ecx, (%rbx,%r12,4)                           #119.9
        movl      %ecx, (%rbp,%r12,4)                           #120.9
        movl      $0, (%r13,%r12,4)                             #121.9
        incq      %r12                                          #110.37
        cmpq      $8388608, %r12                                #110.25
        jl        ..B6.88       # Prob 99%                      #110.25
                                # LOE rdx rbx rbp r12 r13 r14 r15 ecx
..B6.92:                        # Preds ..B6.91
                                # Execution count [1.53e-01]
        movl      %ecx, 80(%rsp)                                #124.30
        movl      %ecx, 84(%rsp)                                #124.52
        movq      %rdx, %r12                                    #
        movl      $0, 88(%rsp)                                  #125.28
        rdtsc                                                   #129.13
        shlq      $32, %rdx                                     #129.13
        orq       %rdx, %rax                                    #129.13
                                # LOE rax rbx rbp r12 r13 r14 r15 ecx
..B6.161:                       # Preds ..B6.92
                                # Execution count [1.53e-01]
        movq      %rax, (%rsp)                                  #129.13[spill]
                                # LOE rbx rbp r12 r13 r14 r15 ecx
..B6.93:                        # Preds ..B6.161
                                # Execution count [1.53e-01]
        movl      %ecx, %edx                                    #130.16
        xorl      %eax, %eax                                    #130.16
        movq      %r15, 8(%rsp)                                 #130.16[spill]
        movl      %edx, %r15d                                   #130.16
        movq      %r14, 64(%rsp)                                #130.16[spill]
        movq      %rax, %r14                                    #130.16
                                # LOE rbx rbp r12 r13 r14 r15d
..B6.94:                        # Preds ..B6.95 ..B6.93
                                # Execution count [8.48e-01]
        movq      64(%rsp), %r10                                #131.9[spill]
        lea       (%r12,%r14), %rdx                             #131.9
        movq      8(%rsp), %r11                                 #131.9[spill]
        lea       (%rbx,%r14), %rcx                             #131.9
        lea       (%rbp,%r14), %r8                              #131.9
        lea       (%r10,%r14), %rdi                             #131.9
        lea       (%r11,%r14), %rsi                             #131.9
        lea       (%r13,%r14), %r9                              #131.9
..___tag_value__Z8run_SIMDIfLj1EEyv.393:
#       QuadSolveSIMD<float, UME::SIMD::SIMDVec<float, 1U>, UME::SIMD::SIMDTraits<UME::SIMD::SIMD1_32f>::INT_VEC_T>(const float *, const float *, const float *, float *, float *, int *)
        call      _Z13QuadSolveSIMDIfN3UME4SIMD9SIMDVec_fIfLj1EEENS1_9SIMDVec_iIiLj1EEEEvPKT_S8_S8_PS6_S9_Pi #131.9
..___tag_value__Z8run_SIMDIfLj1EEyv.394:
                                # LOE rbx rbp r12 r13 r14 r15d
..B6.95:                        # Preds ..B6.94
                                # Execution count [8.48e-01]
        incl      %r15d                                         #130.37
        addq      $4, %r14                                      #130.37
        cmpl      $8388608, %r15d                               #130.25
        jl        ..B6.94       # Prob 82%                      #130.25
                                # LOE rbx rbp r12 r13 r14 r15d
..B6.96:                        # Preds ..B6.95
                                # Execution count [1.53e-01]
        movq      8(%rsp), %r15                                 #[spill]
        xorl      %ecx, %ecx                                    #
        movq      64(%rsp), %r14                                #[spill]
        rdtsc                                                   #143.11
        shlq      $32, %rdx                                     #143.11
        orq       %rdx, %rax                                    #143.11
                                # LOE rax rbx rbp r12 r13 r14 r15 ecx
..B6.162:                       # Preds ..B6.96
                                # Execution count [1.53e-01]
        movq      %rax, 8(%rsp)                                 #143.11[spill]
                                # LOE rbx rbp r12 r13 r14 r15 ecx
..B6.97:                        # Preds ..B6.162
                                # Execution count [1.56e-02]
        xorl      %eax, %eax                                    #145.16
        movq      %rbp, 72(%rsp)                                #145.16[spill]
        movq      %rax, %rbp                                    #145.16
        movq      %r14, 64(%rsp)                                #145.16[spill]
                                # LOE rbx rbp r12 r13 r15
..B6.98:                        # Preds ..B6.105 ..B6.97
                                # Execution count [1.53e+05]
        movl      (%r13,%rbp,4), %edx                           #147.22
        xorl      %r8d, %r8d                                    #152.20
        addl      %edx, 88(%rsp)                                #147.9
        lea       92(%rsp), %rdi                                #153.18
        vmovss    -12(%rdi), %xmm2                              #148.9
        lea       96(%rsp), %rsi                                #153.18
        movq      -24(%rsi), %rcx                               #149.9[spill]
        movq      -32(%rsi), %r9                                #153.18[spill]
        vaddss    (%rbx,%rbp,4), %xmm2, %xmm3                   #148.9
        vmovss    %xmm3, -16(%rsi)                              #148.9
        vmovss    -12(%rsi), %xmm4                              #149.9
        vaddss    (%rcx,%rbp,4), %xmm4, %xmm5                   #149.9
        vmovss    %xmm5, -12(%rsi)                              #149.9
        movl      %r8d, -4(%rsi)                                #152.20
        movl      %r8d, (%rsi)                                  #152.40
        vmovss    (%r9,%rbp,4), %xmm0                           #153.18
        vmovss    (%r15,%rbp,4), %xmm1                          #153.18
        vmovss    (%r12,%rbp,4), %xmm2                          #153.18
..___tag_value__Z8run_SIMDIfLj1EEyv.395:
#       QuadSolveNaive<float>(float, float, float, float &, float &)
        call      _Z14QuadSolveNaiveIfEiT_S0_S0_RS0_S1_         #153.18
..___tag_value__Z8run_SIMDIfLj1EEyv.396:
                                # LOE rbx rbp r12 r13 r15 eax
..B6.163:                       # Preds ..B6.98
                                # Execution count [1.53e+05]
        movl      %eax, %r14d                                   #153.18
                                # LOE rbx rbp r12 r13 r15 r14d
..B6.99:                        # Preds ..B6.163
                                # Execution count [1.53e+05]
        cmpl      (%r13,%rbp,4), %r14d                          #154.25
        je        ..B6.105      # Prob 78%                      #154.25
                                # LOE rbx rbp r12 r13 r15 r14d
..B6.100:                       # Preds ..B6.99
                                # Execution count [3.36e+04]
        movl      $_ZSt4cout, %edi                              #156.23
        movl      $.L_2__STRING.3, %esi                         #156.23
..___tag_value__Z8run_SIMDIfLj1EEyv.397:
#       std::operator<<<std::char_traits<char>>(std::basic_ostream<char, std::char_traits<char>> &, const char *)
        call      _ZStlsISt11char_traitsIcEERSt13basic_ostreamIcT_ES5_PKc #156.23
..___tag_value__Z8run_SIMDIfLj1EEyv.398:
                                # LOE rax rbx rbp r12 r13 r15 r14d
..B6.101:                       # Preds ..B6.100
                                # Execution count [3.36e+04]
        movq      %rax, %rdi                                    #156.53
        movl      (%r13,%rbp,4), %esi                           #156.53
..___tag_value__Z8run_SIMDIfLj1EEyv.399:
#       std::basic_ostream<char, std::char_traits<char>>::operator<<(std::basic_ostream<char, std::char_traits<char>> *, int)
        call      _ZNSolsEi                                     #156.53
..___tag_value__Z8run_SIMDIfLj1EEyv.400:
                                # LOE rax rbx rbp r12 r13 r15 r14d
..B6.102:                       # Preds ..B6.101
                                # Execution count [3.36e+04]
        movq      %rax, %rdi                                    #156.65
        movl      $.L_2__STRING.4, %esi                         #156.65
..___tag_value__Z8run_SIMDIfLj1EEyv.401:
#       std::operator<<<std::char_traits<char>>(std::basic_ostream<char, std::char_traits<char>> &, const char *)
        call      _ZStlsISt11char_traitsIcEERSt13basic_ostreamIcT_ES5_PKc #156.65
..___tag_value__Z8run_SIMDIfLj1EEyv.402:
                                # LOE rax rbx rbp r12 r13 r15 r14d
..B6.103:                       # Preds ..B6.102
                                # Execution count [3.36e+04]
        movq      %rax, %rdi                                    #156.82
        movl      %r14d, %esi                                   #156.82
..___tag_value__Z8run_SIMDIfLj1EEyv.403:
#       std::basic_ostream<char, std::char_traits<char>>::operator<<(std::basic_ostream<char, std::char_traits<char>> *, int)
        call      _ZNSolsEi                                     #156.82
..___tag_value__Z8run_SIMDIfLj1EEyv.404:
                                # LOE rax rbx rbp r12 r13 r15
..B6.104:                       # Preds ..B6.103
                                # Execution count [3.36e+04]
        movq      %rax, %rdi                                    #156.88
        movl      $_ZSt4endlIcSt11char_traitsIcEERSt13basic_ostreamIT_T0_ES6_, %esi #156.88
..___tag_value__Z8run_SIMDIfLj1EEyv.405:
#       std::basic_ostream<char, std::char_traits<char>>::operator<<(std::basic_ostream<char, std::char_traits<char>> *, std::basic_ostream<char, std::char_traits<char>>::__ostream_type &(*)(std::basic_ostream<char, std::char_traits<char>>::__ostream_type &))
        call      _ZNSolsEPFRSoS_E                              #156.88
..___tag_value__Z8run_SIMDIfLj1EEyv.406:
                                # LOE rbx rbp r12 r13 r15
..B6.105:                       # Preds ..B6.104 ..B6.99
                                # Execution count [1.53e+05]
        incq      %rbp                                          #145.37
        cmpq      $8388608, %rbp                                #145.25
        jl        ..B6.98       # Prob 99%                      #145.25
                                # LOE rbx rbp r12 r13 r15
..B6.106:                       # Preds ..B6.105
                                # Execution count [2.33e-02]
        movq      64(%rsp), %r14                                #[spill]
        movq      %r14, %rdi                                    #160.5
        movq      72(%rsp), %rbp                                #[spill]
#       free(void *)
        call      free                                          #160.5
                                # LOE rbx rbp r12 r13 r15
..B6.107:                       # Preds ..B6.106
                                # Execution count [2.33e-02]
        movq      %r15, %rdi                                    #161.5
#       free(void *)
        call      free                                          #161.5
                                # LOE rbx rbp r12 r13
..B6.108:                       # Preds ..B6.107
                                # Execution count [2.33e-02]
        movq      %r12, %rdi                                    #162.5
#       free(void *)
        call      free                                          #162.5
                                # LOE rbx rbp r13
..B6.109:                       # Preds ..B6.108
                                # Execution count [2.33e-02]
        movq      %r13, %rdi                                    #163.5
#       free(void *)
        call      free                                          #163.5
                                # LOE rbx rbp
..B6.110:                       # Preds ..B6.109
                                # Execution count [2.33e-02]
        movq      %rbx, %rdi                                    #164.5
#       free(void *)
        call      free                                          #164.5
                                # LOE rbp
..B6.111:                       # Preds ..B6.110
                                # Execution count [2.33e-02]
        movq      %rbp, %rdi                                    #165.5
#       free(void *)
        call      free                                          #165.5
                                # LOE
..B6.112:                       # Preds ..B6.111
                                # Execution count [2.33e-02]
        movq      8(%rsp), %rax                                 #143.11[spill]
        subq      (%rsp), %rax                                  #143.11[spill]
        addq      $104, %rsp                                    #167.18
	.cfi_def_cfa_offset 56
	.cfi_restore 6
        popq      %rbp                                          #167.18
	.cfi_def_cfa_offset 48
	.cfi_restore 3
        popq      %rbx                                          #167.18
	.cfi_def_cfa_offset 40
	.cfi_restore 15
        popq      %r15                                          #167.18
	.cfi_def_cfa_offset 32
	.cfi_restore 14
        popq      %r14                                          #167.18
	.cfi_def_cfa_offset 24
	.cfi_restore 13
        popq      %r13                                          #167.18
	.cfi_def_cfa_offset 16
	.cfi_restore 12
        popq      %r12                                          #167.18
	.cfi_def_cfa_offset 8
        ret                                                     #167.18
        .align    16,0x90
	.cfi_endproc
                                # LOE
# mark_end;
	.type	_Z8run_SIMDIfLj1EEyv,@function
	.size	_Z8run_SIMDIfLj1EEyv,.-_Z8run_SIMDIfLj1EEyv
	.data
# -- End  _Z8run_SIMDIfLj1EEyv
	.section .text._Z13QuadSolveSIMDIfN3UME4SIMD9SIMDVec_fIfLj1EEENS1_9SIMDVec_iIiLj1EEEEvPKT_S8_S8_PS6_S9_Pi, "xaG",@progbits,_Z13QuadSolveSIMDIfN3UME4SIMD9SIMDVec_fIfLj1EEENS1_9SIMDVec_iIiLj1EEEEvPKT_S8_S8_PS6_S9_Pi,comdat
..TXTST6:
# -- Begin  _Z13QuadSolveSIMDIfN3UME4SIMD9SIMDVec_fIfLj1EEENS1_9SIMDVec_iIiLj1EEEEvPKT_S8_S8_PS6_S9_Pi
	.section .text._Z13QuadSolveSIMDIfN3UME4SIMD9SIMDVec_fIfLj1EEENS1_9SIMDVec_iIiLj1EEEEvPKT_S8_S8_PS6_S9_Pi, "xaG",@progbits,_Z13QuadSolveSIMDIfN3UME4SIMD9SIMDVec_fIfLj1EEENS1_9SIMDVec_iIiLj1EEEEvPKT_S8_S8_PS6_S9_Pi,comdat
# mark_begin;
       .align    16,0x90
	.weak _Z13QuadSolveSIMDIfN3UME4SIMD9SIMDVec_fIfLj1EEENS1_9SIMDVec_iIiLj1EEEEvPKT_S8_S8_PS6_S9_Pi
# --- QuadSolveSIMD<float, UME::SIMD::SIMDVec<float, 1U>, UME::SIMD::SIMDTraits<UME::SIMD::SIMD1_32f>::INT_VEC_T>(const float *, const float *, const float *, float *, float *, int *)
_Z13QuadSolveSIMDIfN3UME4SIMD9SIMDVec_fIfLj1EEENS1_9SIMDVec_iIiLj1EEEEvPKT_S8_S8_PS6_S9_Pi:
# parameter 1: %rdi
# parameter 2: %rsi
# parameter 3: %rdx
# parameter 4: %rcx
# parameter 5: %r8
# parameter 6: %r9
..B7.1:                         # Preds ..B7.0
                                # Execution count [1.00e+00]
	.cfi_startproc
	.cfi_personality 0x3,__gxx_personality_v0
	.cfi_lsda 0xb, _Z13QuadSolveSIMDIfN3UME4SIMD9SIMDVec_fIfLj1EEENS1_9SIMDVec_iIiLj1EEEEvPKT_S8_S8_PS6_S9_Pi$$LSDA
..___tag_value__Z13QuadSolveSIMDIfN3UME4SIMD9SIMDVec_fIfLj1EEENS1_9SIMDVec_iIiLj1EEEEvPKT_S8_S8_PS6_S9_Pi.421:
..L422:
                                                        #52.1
        vmovss    (%rsi), %xmm7                                 #57.21
        vxorps    %xmm8, %xmm8, %xmm8                           #65.31
        vmovss    (%rdx), %xmm9                                 #62.21
        vmulss    .L_2il0floatpacket.34(%rip), %xmm9, %xmm6     #67.33
        vmulss    %xmm7, %xmm7, %xmm1                           #67.33
        vcomiss   %xmm8, %xmm7                                  #71.13
        vmovss    (%rdi), %xmm0                                 #56.21
        vfmadd213ss %xmm1, %xmm0, %xmm6                         #67.33
        vmovss    .L_2il0floatpacket.29(%rip), %xmm5            #59.29
        vmovss    .L_2il0floatpacket.37(%rip), %xmm4            #63.24
        vmovss    .L_2il0floatpacket.36(%rip), %xmm1            #71.17
        vdivss    %xmm0, %xmm5, %xmm10                          #59.29
        vsqrtss   %xmm6, %xmm6, %xmm3                           #68.41
        vcmpgess  .L_2il0floatpacket.35(%rip), %xmm6, %xmm2     #70.26
        vmovd     %xmm2, %eax                                   #70.26
        vmovss    .L_2il0floatpacket.38(%rip), %xmm2            #75.21
        jb        ..L423        # Prob 50%                      #71.13
        vmovaps   %xmm5, %xmm4                                  #71.13
..L423:                                                         #
        vfmadd213ss %xmm7, %xmm3, %xmm4                         #71.13
        negl      %eax                                          #70.26
        cmpl      $1, %eax                                      #76.26
        vmulss    %xmm1, %xmm4, %xmm3                           #71.13
        je        ..L424        # Prob 50%                      #76.26
        vmovaps   %xmm5, %xmm2                                  #76.26
..L424:                                                         #
        vcomiss   %xmm6, %xmm8                                  #77.13
        ja        ..B7.7        # Prob 16%                      #77.13
                                # LOE rcx rbx rbp r8 r9 r12 r13 r14 r15 eax xmm1 xmm2 xmm3 xmm7 xmm8 xmm9 xmm10
..B7.2:                         # Preds ..B7.1
                                # Execution count [8.40e-01]
        vmulss    %xmm10, %xmm7, %xmm0                          #74.25
        vmulss    %xmm1, %xmm0, %xmm8                           #74.33
                                # LOE rcx rbx rbp r8 r9 r12 r13 r14 r15 eax xmm2 xmm3 xmm8 xmm9 xmm10
..B7.3:                         # Preds ..B7.7 ..B7.2
                                # Execution count [1.00e+00]
        cmpl      $1, %eax                                      #79.13
        je        ..B7.6        # Prob 16%                      #79.13
                                # LOE rcx rbx rbp r8 r9 r12 r13 r14 r15 xmm2 xmm3 xmm8 xmm9 xmm10
..B7.4:                         # Preds ..B7.3
                                # Execution count [8.40e-01]
        vmovaps   %xmm8, %xmm0                                  #80.13
                                # LOE rcx rbx rbp r8 r9 r12 r13 r14 r15 xmm0 xmm2 xmm8
..B7.5:                         # Preds ..B7.6 ..B7.4
                                # Execution count [1.00e+00]
        vcvttss2si %xmm2, %eax                                  #82.25
        movl      %eax, (%r9)                                   #84.16
        vmovss    %xmm8, (%rcx)                                 #85.8
        vmovss    %xmm0, (%r8)                                  #86.8
        ret                                                     #87.1
                                # LOE
..B7.6:                         # Preds ..B7.3
                                # Execution count [1.60e-01]: Infreq
        vmulss    %xmm3, %xmm10, %xmm8                          #73.16
        vdivss    %xmm3, %xmm9, %xmm0                           #72.25
        jmp       ..B7.5        # Prob 100%                     #72.25
                                # LOE rcx rbx rbp r8 r9 r12 r13 r14 r15 xmm0 xmm2 xmm8
..B7.7:                         # Preds ..B7.1
                                # Execution count [1.60e-01]: Infreq
        vmovaps   %xmm8, %xmm2                                  #77.13
        jmp       ..B7.3        # Prob 100%                     #77.13
        .align    16,0x90
	.cfi_endproc
                                # LOE rcx rbx rbp r8 r9 r12 r13 r14 r15 eax xmm2 xmm3 xmm8 xmm9 xmm10
# mark_end;
	.type	_Z13QuadSolveSIMDIfN3UME4SIMD9SIMDVec_fIfLj1EEENS1_9SIMDVec_iIiLj1EEEEvPKT_S8_S8_PS6_S9_Pi,@function
	.size	_Z13QuadSolveSIMDIfN3UME4SIMD9SIMDVec_fIfLj1EEENS1_9SIMDVec_iIiLj1EEEEvPKT_S8_S8_PS6_S9_Pi,.-_Z13QuadSolveSIMDIfN3UME4SIMD9SIMDVec_fIfLj1EEENS1_9SIMDVec_iIiLj1EEEEvPKT_S8_S8_PS6_S9_Pi
	.section .gcc_except_table, "a"
	.align 4
_Z13QuadSolveSIMDIfN3UME4SIMD9SIMDVec_fIfLj1EEENS1_9SIMDVec_iIiLj1EEEEvPKT_S8_S8_PS6_S9_Pi$$LSDA:
	.byte	255
	.byte	0
	.uleb128	..___tag_value__Z13QuadSolveSIMDIfN3UME4SIMD9SIMDVec_fIfLj1EEENS1_9SIMDVec_iIiLj1EEEEvPKT_S8_S8_PS6_S9_Pi.429 - ..___tag_value__Z13QuadSolveSIMDIfN3UME4SIMD9SIMDVec_fIfLj1EEENS1_9SIMDVec_iIiLj1EEEEvPKT_S8_S8_PS6_S9_Pi.428
..___tag_value__Z13QuadSolveSIMDIfN3UME4SIMD9SIMDVec_fIfLj1EEENS1_9SIMDVec_iIiLj1EEEEvPKT_S8_S8_PS6_S9_Pi.428:
	.byte	1
	.uleb128	..___tag_value__Z13QuadSolveSIMDIfN3UME4SIMD9SIMDVec_fIfLj1EEENS1_9SIMDVec_iIiLj1EEEEvPKT_S8_S8_PS6_S9_Pi.427 - ..___tag_value__Z13QuadSolveSIMDIfN3UME4SIMD9SIMDVec_fIfLj1EEENS1_9SIMDVec_iIiLj1EEEEvPKT_S8_S8_PS6_S9_Pi.426
..___tag_value__Z13QuadSolveSIMDIfN3UME4SIMD9SIMDVec_fIfLj1EEENS1_9SIMDVec_iIiLj1EEEEvPKT_S8_S8_PS6_S9_Pi.426:
..___tag_value__Z13QuadSolveSIMDIfN3UME4SIMD9SIMDVec_fIfLj1EEENS1_9SIMDVec_iIiLj1EEEEvPKT_S8_S8_PS6_S9_Pi.427:
	.long	0x00000000,0x00000000
..___tag_value__Z13QuadSolveSIMDIfN3UME4SIMD9SIMDVec_fIfLj1EEENS1_9SIMDVec_iIiLj1EEEEvPKT_S8_S8_PS6_S9_Pi.429:
	.data
# -- End  _Z13QuadSolveSIMDIfN3UME4SIMD9SIMDVec_fIfLj1EEENS1_9SIMDVec_iIiLj1EEEEvPKT_S8_S8_PS6_S9_Pi
	.section .text._Z14QuadSolveNaiveIfEiT_S0_S0_RS0_S1_, "xaG",@progbits,_Z14QuadSolveNaiveIfEiT_S0_S0_RS0_S1_,comdat
..TXTST7:
# -- Begin  _Z14QuadSolveNaiveIfEiT_S0_S0_RS0_S1_
	.section .text._Z14QuadSolveNaiveIfEiT_S0_S0_RS0_S1_, "xaG",@progbits,_Z14QuadSolveNaiveIfEiT_S0_S0_RS0_S1_,comdat
# mark_begin;
       .align    16,0x90
	.weak _Z14QuadSolveNaiveIfEiT_S0_S0_RS0_S1_
# --- QuadSolveNaive<float>(float, float, float, float &, float &)
_Z14QuadSolveNaiveIfEiT_S0_S0_RS0_S1_:
# parameter 1: %xmm0
# parameter 2: %xmm1
# parameter 3: %xmm2
# parameter 4: %rdi
# parameter 5: %rsi
..B8.1:                         # Preds ..B8.0
                                # Execution count [1.00e+00]
	.cfi_startproc
	.cfi_personality 0x3,__gxx_personality_v0
..___tag_value__Z14QuadSolveNaiveIfEiT_S0_S0_RS0_S1_.430:
..L431:
                                                        #15.66
        vmovaps   %xmm1, %xmm5                                  #15.66
        vmovaps   %xmm0, %xmm6                                  #15.66
        vmulss    %xmm2, %xmm6, %xmm1                           #16.36
        vmulss    %xmm5, %xmm5, %xmm3                           #16.36
        vfnmadd132ss .L_2il0floatpacket.39(%rip), %xmm3, %xmm1  #16.36
        vxorps    %xmm3, %xmm3, %xmm3                           #18.5
        vcomiss   %xmm1, %xmm3                                  #18.17
        ja        ..B8.8        # Prob 28%                      #18.17
                                # LOE rbx rbp rsi rdi r12 r13 r14 r15 xmm1 xmm2 xmm3 xmm5 xmm6
..B8.2:                         # Preds ..B8.1
                                # Execution count [7.20e-01]
        vmovss    .L_2il0floatpacket.35(%rip), %xmm0            #21.17
        vcomiss   %xmm1, %xmm0                                  #21.17
        ja        ..B8.7        # Prob 28%                      #21.17
                                # LOE rbx rbp rsi rdi r12 r13 r14 r15 xmm1 xmm2 xmm3 xmm5 xmm6
..B8.3:                         # Preds ..B8.2
                                # Execution count [5.18e-01]
        vmovss    .L_2il0floatpacket.36(%rip), %xmm4            #27.14
        vsqrtss   %xmm1, %xmm1, %xmm1                           #27.29
        vcomiss   %xmm3, %xmm5                                  #26.14
        jb        ..B8.5        # Prob 50%                      #26.14
                                # LOE rbx rbp rsi rdi r12 r13 r14 r15 xmm1 xmm2 xmm4 xmm5 xmm6
..B8.4:                         # Preds ..B8.3
                                # Execution count [2.59e-01]
        vaddss    %xmm1, %xmm5, %xmm0                           #27.29
        vmulss    %xmm0, %xmm4, %xmm1                           #27.29
        vdivss    %xmm6, %xmm1, %xmm3                           #27.49
        vmulss    %xmm3, %xmm6, %xmm4                           #28.23
        vdivss    %xmm4, %xmm2, %xmm2                           #28.23
        vmovss    %xmm3, (%rdi)                                 #27.9
        vmovss    %xmm2, (%rsi)                                 #28.9
        jmp       ..B8.6        # Prob 100%                     #28.9
                                # LOE rbx rbp r12 r13 r14 r15
..B8.5:                         # Preds ..B8.3
                                # Execution count [2.59e-01]
        vsubss    %xmm1, %xmm5, %xmm0                           #31.29
        vmulss    %xmm0, %xmm4, %xmm1                           #31.29
        vdivss    %xmm6, %xmm1, %xmm3                           #31.49
        vmulss    %xmm3, %xmm6, %xmm4                           #32.23
        vdivss    %xmm4, %xmm2, %xmm2                           #32.23
        vmovss    %xmm3, (%rsi)                                 #31.9
        vmovss    %xmm2, (%rdi)                                 #32.9
                                # LOE rbx rbp r12 r13 r14 r15
..B8.6:                         # Preds ..B8.4 ..B8.5
                                # Execution count [5.18e-01]
        movl      $2, %eax                                      #35.12
        ret                                                     #35.12
                                # LOE
..B8.7:                         # Preds ..B8.2
                                # Execution count [2.02e-01]
        vmulss    .L_2il0floatpacket.36(%rip), %xmm5, %xmm0     #22.29
        movl      $1, %eax                                      #23.16
        vdivss    %xmm6, %xmm0, %xmm1                           #22.33
        vmovss    %xmm1, (%rsi)                                 #22.14
        vmovss    %xmm1, (%rdi)                                 #22.9
        ret                                                     #23.16
                                # LOE
..B8.8:                         # Preds ..B8.1
                                # Execution count [2.80e-01]
        xorl      %eax, %eax                                    #19.16
        ret                                                     #19.16
        .align    16,0x90
	.cfi_endproc
                                # LOE
# mark_end;
	.type	_Z14QuadSolveNaiveIfEiT_S0_S0_RS0_S1_,@function
	.size	_Z14QuadSolveNaiveIfEiT_S0_S0_RS0_S1_,.-_Z14QuadSolveNaiveIfEiT_S0_S0_RS0_S1_
	.data
# -- End  _Z14QuadSolveNaiveIfEiT_S0_S0_RS0_S1_
	.section .text._ZNSt11char_traitsIcE6lengthEPKc, "xaG",@progbits,_ZNSt11char_traitsIcE6lengthEPKc,comdat
..TXTST8:
# -- Begin  _ZNSt11char_traitsIcE6lengthEPKc
	.section .text._ZNSt11char_traitsIcE6lengthEPKc, "xaG",@progbits,_ZNSt11char_traitsIcE6lengthEPKc,comdat
# mark_begin;
       .align    16,0x90
	.weak _ZNSt11char_traitsIcE6lengthEPKc
# --- std::char_traits<char>::length(const std::char_traits<char>::char_type *)
_ZNSt11char_traitsIcE6lengthEPKc:
# parameter 1: %rdi
..B9.1:                         # Preds ..B9.0
                                # Execution count [1.00e+00]
	.cfi_startproc
	.cfi_personality 0x3,__gxx_personality_v0
..___tag_value__ZNSt11char_traitsIcE6lengthEPKc.433:
..L434:
                                                        #267.7
        pushq     %rsi                                          #267.7
	.cfi_def_cfa_offset 16
        movq      %rdi, %rdx                                    #267.16
        movq      %rdx, %rcx                                    #267.16
        andq      $-16, %rdx                                    #267.16
        vpxor     %xmm0, %xmm0, %xmm0                           #267.16
        vpcmpeqb  (%rdx), %xmm0, %xmm0                          #267.16
        vpmovmskb %xmm0, %eax                                   #267.16
        andl      $15, %ecx                                     #267.16
        shrl      %cl, %eax                                     #267.16
        bsf       %eax, %eax                                    #267.16
        jne       ..L436        # Prob 60%                      #267.16
        movq      %rdx, %rax                                    #267.16
        addq      %rcx, %rdx                                    #267.16
        call      __intel_sse4_strlen                           #267.16
..L436:                                                         #
                                # LOE rax rbx rbp r12 r13 r14 r15
..B9.4:                         # Preds ..B9.1
                                # Execution count [1.00e+00]
        popq      %rcx                                          #267.16
	.cfi_def_cfa_offset 8
        ret                                                     #267.16
        .align    16,0x90
	.cfi_endproc
                                # LOE
# mark_end;
	.type	_ZNSt11char_traitsIcE6lengthEPKc,@function
	.size	_ZNSt11char_traitsIcE6lengthEPKc,.-_ZNSt11char_traitsIcE6lengthEPKc
	.data
# -- End  _ZNSt11char_traitsIcE6lengthEPKc
	.section .text._Z8run_SIMDIdLj16EEyv, "xaG",@progbits,_Z8run_SIMDIdLj16EEyv,comdat
..TXTST9:
# -- Begin  _Z8run_SIMDIdLj16EEyv
	.section .text._Z8run_SIMDIdLj16EEyv, "xaG",@progbits,_Z8run_SIMDIdLj16EEyv,comdat
# mark_begin;
       .align    16,0x90
	.weak _Z8run_SIMDIdLj16EEyv
# --- run_SIMD<double, 16U>()
_Z8run_SIMDIdLj16EEyv:
..B10.1:                        # Preds ..B10.0
                                # Execution count [1.00e+00]
	.cfi_startproc
	.cfi_personality 0x3,__gxx_personality_v0
..___tag_value__Z8run_SIMDIdLj16EEyv.439:
..L440:
                                                        #91.1
        pushq     %r12                                          #91.1
	.cfi_def_cfa_offset 16
	.cfi_offset 12, -16
        pushq     %r13                                          #91.1
	.cfi_def_cfa_offset 24
	.cfi_offset 13, -24
        pushq     %r14                                          #91.1
	.cfi_def_cfa_offset 32
	.cfi_offset 14, -32
        pushq     %r15                                          #91.1
	.cfi_def_cfa_offset 40
	.cfi_offset 15, -40
        pushq     %rbx                                          #91.1
	.cfi_def_cfa_offset 48
	.cfi_offset 3, -48
        pushq     %rbp                                          #91.1
	.cfi_def_cfa_offset 56
	.cfi_offset 6, -56
        subq      $136, %rsp                                    #91.1
	.cfi_def_cfa_offset 192
        movl      $64, %esi                                     #99.29
        movl      $67108864, %edx                               #99.29
        lea       32(%rsp), %rdi                                #99.29
#       posix_memalign(void **, size_t, size_t)
        call      posix_memalign                                #99.29
                                # LOE eax
..B10.121:                      # Preds ..B10.1
                                # Execution count [1.00e+00]
        movl      %eax, %ebx                                    #99.29
                                # LOE ebx
..B10.2:                        # Preds ..B10.121
                                # Execution count [1.00e+00]
        movl      $128, %ebp                                    #99.29
        testl     %ebx, %ebx                                    #99.29
        je        ..B10.8       # Prob 10%                      #99.29
                                # LOE rbp ebx
..B10.4:                        # Preds ..B10.2 ..B10.6
                                # Execution count [2.09e+00]
        movq      %rbp, %rsi                                    #99.29
        lea       32(%rsp), %rdi                                #99.29
        movl      $67108864, %edx                               #99.29
#       posix_memalign(void **, size_t, size_t)
        call      posix_memalign                                #99.29
                                # LOE rbp eax
..B10.122:                      # Preds ..B10.4
                                # Execution count [2.09e+00]
        movl      %eax, %ebx                                    #99.29
                                # LOE rbp ebx
..B10.5:                        # Preds ..B10.122
                                # Execution count [2.09e+00]
        addq      %rbp, %rbp                                    #99.29
        testl     %ebx, %ebx                                    #99.29
        je        ..B10.8       # Prob 18%                      #99.29
                                # LOE rbp ebx
..B10.6:                        # Preds ..B10.5
                                # Execution count [1.72e+00]
        cmpq      $2048, %rbp                                   #99.29
        jb        ..B10.4       # Prob 80%                      #99.29
                                # LOE rbp ebx
..B10.8:                        # Preds ..B10.5 ..B10.6 ..B10.2
                                # Execution count [1.00e+00]
        testl     %ebx, %ebx                                    #99.29
        je        ..B10.15      # Prob 78%                      #99.29
                                # LOE ebx
..B10.9:                        # Preds ..B10.8
                                # Execution count [2.20e-01]
        movl      $_ZSt4cout, %edi                              #99.29
        movl      $.L_2__STRING.6, %esi                         #99.29
..___tag_value__Z8run_SIMDIdLj16EEyv.454:
#       std::operator<<<std::char_traits<char>>(std::basic_ostream<char, std::char_traits<char>> &, const char *)
        call      _ZStlsISt11char_traitsIcEERSt13basic_ostreamIcT_ES5_PKc #99.29
..___tag_value__Z8run_SIMDIdLj16EEyv.455:
                                # LOE rax ebx
..B10.10:                       # Preds ..B10.9
                                # Execution count [2.20e-01]
        movq      %rax, %rdi                                    #99.29
        movl      %ebx, %esi                                    #99.29
..___tag_value__Z8run_SIMDIdLj16EEyv.456:
#       std::basic_ostream<char, std::char_traits<char>>::operator<<(std::basic_ostream<char, std::char_traits<char>> *, int)
        call      _ZNSolsEi                                     #99.29
..___tag_value__Z8run_SIMDIdLj16EEyv.457:
                                # LOE rax
..B10.11:                       # Preds ..B10.10
                                # Execution count [2.20e-01]
        movq      %rax, %rdi                                    #99.29
        movl      $_ZSt4endlIcSt11char_traitsIcEERSt13basic_ostreamIT_T0_ES6_, %esi #99.29
..___tag_value__Z8run_SIMDIdLj16EEyv.458:
#       std::basic_ostream<char, std::char_traits<char>>::operator<<(std::basic_ostream<char, std::char_traits<char>> *, std::basic_ostream<char, std::char_traits<char>>::__ostream_type &(*)(std::basic_ostream<char, std::char_traits<char>>::__ostream_type &))
        call      _ZNSolsEPFRSoS_E                              #99.29
..___tag_value__Z8run_SIMDIdLj16EEyv.459:
                                # LOE
..B10.12:                       # Preds ..B10.11
                                # Execution count [2.20e-01]
        movl      $_ZSt4cout, %edi                              #99.29
        movl      $.L_2__STRING.7, %esi                         #99.29
..___tag_value__Z8run_SIMDIdLj16EEyv.460:
#       std::operator<<<std::char_traits<char>>(std::basic_ostream<char, std::char_traits<char>> &, const char *)
        call      _ZStlsISt11char_traitsIcEERSt13basic_ostreamIcT_ES5_PKc #99.29
..___tag_value__Z8run_SIMDIdLj16EEyv.461:
                                # LOE rax
..B10.13:                       # Preds ..B10.12
                                # Execution count [2.20e-01]
        movq      %rax, %rdi                                    #99.29
        movl      $8, %esi                                      #99.29
..___tag_value__Z8run_SIMDIdLj16EEyv.462:
#       std::basic_ostream<char, std::char_traits<char>>::operator<<(std::basic_ostream<char, std::char_traits<char>> *, unsigned long)
        call      _ZNSolsEm                                     #99.29
..___tag_value__Z8run_SIMDIdLj16EEyv.463:
                                # LOE rax
..B10.14:                       # Preds ..B10.13
                                # Execution count [2.20e-01]
        movq      %rax, %rdi                                    #99.29
        movl      $_ZSt4endlIcSt11char_traitsIcEERSt13basic_ostreamIT_T0_ES6_, %esi #99.29
..___tag_value__Z8run_SIMDIdLj16EEyv.464:
#       std::basic_ostream<char, std::char_traits<char>>::operator<<(std::basic_ostream<char, std::char_traits<char>> *, std::basic_ostream<char, std::char_traits<char>>::__ostream_type &(*)(std::basic_ostream<char, std::char_traits<char>>::__ostream_type &))
        call      _ZNSolsEPFRSoS_E                              #99.29
..___tag_value__Z8run_SIMDIdLj16EEyv.465:
                                # LOE
..B10.15:                       # Preds ..B10.14 ..B10.8
                                # Execution count [1.00e+00]
        movl      $64, %esi                                     #100.29
        lea       40(%rsp), %rdi                                #100.29
        movl      $67108864, %edx                               #100.29
        movq      -8(%rdi), %r13                                #99.29
#       posix_memalign(void **, size_t, size_t)
        call      posix_memalign                                #100.29
                                # LOE r13 eax
..B10.127:                      # Preds ..B10.15
                                # Execution count [1.00e+00]
        movl      %eax, %ebx                                    #100.29
                                # LOE r13 ebx
..B10.16:                       # Preds ..B10.127
                                # Execution count [1.00e+00]
        movl      $128, %ebp                                    #100.29
        testl     %ebx, %ebx                                    #100.29
        je        ..B10.22      # Prob 10%                      #100.29
                                # LOE rbp r13 ebx
..B10.18:                       # Preds ..B10.16 ..B10.20
                                # Execution count [2.09e+00]
        movq      %rbp, %rsi                                    #100.29
        lea       40(%rsp), %rdi                                #100.29
        movl      $67108864, %edx                               #100.29
#       posix_memalign(void **, size_t, size_t)
        call      posix_memalign                                #100.29
                                # LOE rbp r13 eax
..B10.128:                      # Preds ..B10.18
                                # Execution count [2.09e+00]
        movl      %eax, %ebx                                    #100.29
                                # LOE rbp r13 ebx
..B10.19:                       # Preds ..B10.128
                                # Execution count [2.09e+00]
        addq      %rbp, %rbp                                    #100.29
        testl     %ebx, %ebx                                    #100.29
        je        ..B10.22      # Prob 18%                      #100.29
                                # LOE rbp r13 ebx
..B10.20:                       # Preds ..B10.19
                                # Execution count [1.72e+00]
        cmpq      $2048, %rbp                                   #100.29
        jb        ..B10.18      # Prob 80%                      #100.29
                                # LOE rbp r13 ebx
..B10.22:                       # Preds ..B10.19 ..B10.20 ..B10.16
                                # Execution count [1.00e+00]
        testl     %ebx, %ebx                                    #100.29
        je        ..B10.29      # Prob 78%                      #100.29
                                # LOE r13 ebx
..B10.23:                       # Preds ..B10.22
                                # Execution count [2.20e-01]
        movl      $_ZSt4cout, %edi                              #100.29
        movl      $.L_2__STRING.6, %esi                         #100.29
..___tag_value__Z8run_SIMDIdLj16EEyv.466:
#       std::operator<<<std::char_traits<char>>(std::basic_ostream<char, std::char_traits<char>> &, const char *)
        call      _ZStlsISt11char_traitsIcEERSt13basic_ostreamIcT_ES5_PKc #100.29
..___tag_value__Z8run_SIMDIdLj16EEyv.467:
                                # LOE rax r13 ebx
..B10.24:                       # Preds ..B10.23
                                # Execution count [2.20e-01]
        movq      %rax, %rdi                                    #100.29
        movl      %ebx, %esi                                    #100.29
..___tag_value__Z8run_SIMDIdLj16EEyv.468:
#       std::basic_ostream<char, std::char_traits<char>>::operator<<(std::basic_ostream<char, std::char_traits<char>> *, int)
        call      _ZNSolsEi                                     #100.29
..___tag_value__Z8run_SIMDIdLj16EEyv.469:
                                # LOE rax r13
..B10.25:                       # Preds ..B10.24
                                # Execution count [2.20e-01]
        movq      %rax, %rdi                                    #100.29
        movl      $_ZSt4endlIcSt11char_traitsIcEERSt13basic_ostreamIT_T0_ES6_, %esi #100.29
..___tag_value__Z8run_SIMDIdLj16EEyv.470:
#       std::basic_ostream<char, std::char_traits<char>>::operator<<(std::basic_ostream<char, std::char_traits<char>> *, std::basic_ostream<char, std::char_traits<char>>::__ostream_type &(*)(std::basic_ostream<char, std::char_traits<char>>::__ostream_type &))
        call      _ZNSolsEPFRSoS_E                              #100.29
..___tag_value__Z8run_SIMDIdLj16EEyv.471:
                                # LOE r13
..B10.26:                       # Preds ..B10.25
                                # Execution count [2.20e-01]
        movl      $_ZSt4cout, %edi                              #100.29
        movl      $.L_2__STRING.7, %esi                         #100.29
..___tag_value__Z8run_SIMDIdLj16EEyv.472:
#       std::operator<<<std::char_traits<char>>(std::basic_ostream<char, std::char_traits<char>> &, const char *)
        call      _ZStlsISt11char_traitsIcEERSt13basic_ostreamIcT_ES5_PKc #100.29
..___tag_value__Z8run_SIMDIdLj16EEyv.473:
                                # LOE rax r13
..B10.27:                       # Preds ..B10.26
                                # Execution count [2.20e-01]
        movq      %rax, %rdi                                    #100.29
        movl      $8, %esi                                      #100.29
..___tag_value__Z8run_SIMDIdLj16EEyv.474:
#       std::basic_ostream<char, std::char_traits<char>>::operator<<(std::basic_ostream<char, std::char_traits<char>> *, unsigned long)
        call      _ZNSolsEm                                     #100.29
..___tag_value__Z8run_SIMDIdLj16EEyv.475:
                                # LOE rax r13
..B10.28:                       # Preds ..B10.27
                                # Execution count [2.20e-01]
        movq      %rax, %rdi                                    #100.29
        movl      $_ZSt4endlIcSt11char_traitsIcEERSt13basic_ostreamIT_T0_ES6_, %esi #100.29
..___tag_value__Z8run_SIMDIdLj16EEyv.476:
#       std::basic_ostream<char, std::char_traits<char>>::operator<<(std::basic_ostream<char, std::char_traits<char>> *, std::basic_ostream<char, std::char_traits<char>>::__ostream_type &(*)(std::basic_ostream<char, std::char_traits<char>>::__ostream_type &))
        call      _ZNSolsEPFRSoS_E                              #100.29
..___tag_value__Z8run_SIMDIdLj16EEyv.477:
                                # LOE r13
..B10.29:                       # Preds ..B10.28 ..B10.22
                                # Execution count [1.00e+00]
        movl      $64, %esi                                     #101.29
        lea       48(%rsp), %rdi                                #101.29
        movl      $67108864, %edx                               #101.29
        movq      -8(%rdi), %r14                                #100.29
#       posix_memalign(void **, size_t, size_t)
        call      posix_memalign                                #101.29
                                # LOE r13 r14 eax
..B10.133:                      # Preds ..B10.29
                                # Execution count [1.00e+00]
        movl      %eax, %ebx                                    #101.29
                                # LOE r13 r14 ebx
..B10.30:                       # Preds ..B10.133
                                # Execution count [1.00e+00]
        movl      $128, %ebp                                    #101.29
        testl     %ebx, %ebx                                    #101.29
        je        ..B10.36      # Prob 10%                      #101.29
                                # LOE rbp r13 r14 ebx
..B10.32:                       # Preds ..B10.30 ..B10.34
                                # Execution count [2.09e+00]
        movq      %rbp, %rsi                                    #101.29
        lea       48(%rsp), %rdi                                #101.29
        movl      $67108864, %edx                               #101.29
#       posix_memalign(void **, size_t, size_t)
        call      posix_memalign                                #101.29
                                # LOE rbp r13 r14 eax
..B10.134:                      # Preds ..B10.32
                                # Execution count [2.09e+00]
        movl      %eax, %ebx                                    #101.29
                                # LOE rbp r13 r14 ebx
..B10.33:                       # Preds ..B10.134
                                # Execution count [2.09e+00]
        addq      %rbp, %rbp                                    #101.29
        testl     %ebx, %ebx                                    #101.29
        je        ..B10.36      # Prob 18%                      #101.29
                                # LOE rbp r13 r14 ebx
..B10.34:                       # Preds ..B10.33
                                # Execution count [1.72e+00]
        cmpq      $2048, %rbp                                   #101.29
        jb        ..B10.32      # Prob 80%                      #101.29
                                # LOE rbp r13 r14 ebx
..B10.36:                       # Preds ..B10.33 ..B10.34 ..B10.30
                                # Execution count [1.00e+00]
        testl     %ebx, %ebx                                    #101.29
        je        ..B10.43      # Prob 78%                      #101.29
                                # LOE r13 r14 ebx
..B10.37:                       # Preds ..B10.36
                                # Execution count [2.20e-01]
        movl      $_ZSt4cout, %edi                              #101.29
        movl      $.L_2__STRING.6, %esi                         #101.29
..___tag_value__Z8run_SIMDIdLj16EEyv.478:
#       std::operator<<<std::char_traits<char>>(std::basic_ostream<char, std::char_traits<char>> &, const char *)
        call      _ZStlsISt11char_traitsIcEERSt13basic_ostreamIcT_ES5_PKc #101.29
..___tag_value__Z8run_SIMDIdLj16EEyv.479:
                                # LOE rax r13 r14 ebx
..B10.38:                       # Preds ..B10.37
                                # Execution count [2.20e-01]
        movq      %rax, %rdi                                    #101.29
        movl      %ebx, %esi                                    #101.29
..___tag_value__Z8run_SIMDIdLj16EEyv.480:
#       std::basic_ostream<char, std::char_traits<char>>::operator<<(std::basic_ostream<char, std::char_traits<char>> *, int)
        call      _ZNSolsEi                                     #101.29
..___tag_value__Z8run_SIMDIdLj16EEyv.481:
                                # LOE rax r13 r14
..B10.39:                       # Preds ..B10.38
                                # Execution count [2.20e-01]
        movq      %rax, %rdi                                    #101.29
        movl      $_ZSt4endlIcSt11char_traitsIcEERSt13basic_ostreamIT_T0_ES6_, %esi #101.29
..___tag_value__Z8run_SIMDIdLj16EEyv.482:
#       std::basic_ostream<char, std::char_traits<char>>::operator<<(std::basic_ostream<char, std::char_traits<char>> *, std::basic_ostream<char, std::char_traits<char>>::__ostream_type &(*)(std::basic_ostream<char, std::char_traits<char>>::__ostream_type &))
        call      _ZNSolsEPFRSoS_E                              #101.29
..___tag_value__Z8run_SIMDIdLj16EEyv.483:
                                # LOE r13 r14
..B10.40:                       # Preds ..B10.39
                                # Execution count [2.20e-01]
        movl      $_ZSt4cout, %edi                              #101.29
        movl      $.L_2__STRING.7, %esi                         #101.29
..___tag_value__Z8run_SIMDIdLj16EEyv.484:
#       std::operator<<<std::char_traits<char>>(std::basic_ostream<char, std::char_traits<char>> &, const char *)
        call      _ZStlsISt11char_traitsIcEERSt13basic_ostreamIcT_ES5_PKc #101.29
..___tag_value__Z8run_SIMDIdLj16EEyv.485:
                                # LOE rax r13 r14
..B10.41:                       # Preds ..B10.40
                                # Execution count [2.20e-01]
        movq      %rax, %rdi                                    #101.29
        movl      $8, %esi                                      #101.29
..___tag_value__Z8run_SIMDIdLj16EEyv.486:
#       std::basic_ostream<char, std::char_traits<char>>::operator<<(std::basic_ostream<char, std::char_traits<char>> *, unsigned long)
        call      _ZNSolsEm                                     #101.29
..___tag_value__Z8run_SIMDIdLj16EEyv.487:
                                # LOE rax r13 r14
..B10.42:                       # Preds ..B10.41
                                # Execution count [2.20e-01]
        movq      %rax, %rdi                                    #101.29
        movl      $_ZSt4endlIcSt11char_traitsIcEERSt13basic_ostreamIT_T0_ES6_, %esi #101.29
..___tag_value__Z8run_SIMDIdLj16EEyv.488:
#       std::basic_ostream<char, std::char_traits<char>>::operator<<(std::basic_ostream<char, std::char_traits<char>> *, std::basic_ostream<char, std::char_traits<char>>::__ostream_type &(*)(std::basic_ostream<char, std::char_traits<char>>::__ostream_type &))
        call      _ZNSolsEPFRSoS_E                              #101.29
..___tag_value__Z8run_SIMDIdLj16EEyv.489:
                                # LOE r13 r14
..B10.43:                       # Preds ..B10.42 ..B10.36
                                # Execution count [1.00e+00]
        movl      $64, %esi                                     #103.25
        lea       56(%rsp), %rdi                                #103.25
        movl      $33554432, %edx                               #103.25
        movq      -8(%rdi), %r12                                #101.29
#       posix_memalign(void **, size_t, size_t)
        call      posix_memalign                                #103.25
                                # LOE r12 r13 r14 eax
..B10.139:                      # Preds ..B10.43
                                # Execution count [1.00e+00]
        movl      %eax, %ebx                                    #103.25
                                # LOE r12 r13 r14 ebx
..B10.44:                       # Preds ..B10.139
                                # Execution count [1.00e+00]
        movl      $128, %ebp                                    #103.25
        testl     %ebx, %ebx                                    #103.25
        je        ..B10.50      # Prob 10%                      #103.25
                                # LOE rbp r12 r13 r14 ebx
..B10.46:                       # Preds ..B10.44 ..B10.48
                                # Execution count [2.09e+00]
        movq      %rbp, %rsi                                    #103.25
        lea       56(%rsp), %rdi                                #103.25
        movl      $33554432, %edx                               #103.25
#       posix_memalign(void **, size_t, size_t)
        call      posix_memalign                                #103.25
                                # LOE rbp r12 r13 r14 eax
..B10.140:                      # Preds ..B10.46
                                # Execution count [2.09e+00]
        movl      %eax, %ebx                                    #103.25
                                # LOE rbp r12 r13 r14 ebx
..B10.47:                       # Preds ..B10.140
                                # Execution count [2.09e+00]
        addq      %rbp, %rbp                                    #103.25
        testl     %ebx, %ebx                                    #103.25
        je        ..B10.50      # Prob 18%                      #103.25
                                # LOE rbp r12 r13 r14 ebx
..B10.48:                       # Preds ..B10.47
                                # Execution count [1.72e+00]
        cmpq      $2048, %rbp                                   #103.25
        jb        ..B10.46      # Prob 80%                      #103.25
                                # LOE rbp r12 r13 r14 ebx
..B10.50:                       # Preds ..B10.47 ..B10.48 ..B10.44
